(dp0
S'yellow'
p1
I2997
sS'del.'
p2
I4958
sS'four'
p3
I1056
sS'mirage'
p4
I5702
sS'looking'
p5
I892
sS'electricity'
p6
I1286
sS'refunding'
p7
I4731
sS'lord'
p8
I5612
sS'propane'
p9
I1587
sS'regional'
p10
I2574
sS'bringing'
p11
I2390
sS'prize'
p12
I3467
sS'wednesday'
p13
I2199
sS'succession'
p14
I5583
sS'infringed'
p15
I2510
sS'miller'
p16
I2403
sS'merieux'
p17
I2681
sS'second'
p18
I193
sS'single-a'
p19
I4977
sS'contributed'
p20
I1227
sS'fingers'
p21
I5652
sS'bonuses'
p22
I1187
sS'increasing'
p23
I606
sS'shocks'
p24
I4760
sS'specialist'
p25
I59
sS'hero'
p26
I2859
sS'here'
p27
I1833
sS'reported'
p28
I1028
sS'china'
p29
I1133
sS'affiliated'
p30
I2555
sS'borrowers'
p31
I3428
sS'kids'
p32
I2867
sS'elaborate'
p33
I2456
sS'climbed'
p34
I2764
sS'reports'
p35
I2134
sS'controversy'
p36
I3831
sS'military'
p37
I3536
sS'cancellation'
p38
I2014
sS'criticism'
p39
I2982
sS'divide'
p40
I5960
sS'explained'
p41
I1118
sS'replace'
p42
I2370
sS'brought'
p43
I2402
sS'beneficiaries'
p44
I4943
sS'stern'
p45
I5244
sS'unit'
p46
I453
sS'opponents'
p47
I4214
sS'personal-computer'
p48
I3947
sS'spoke'
p49
I1923
sS'music'
p50
I4038
sS'therefore'
p51
I1088
sS'strike'
p52
I1029
sS'until'
p53
I736
sS'b.a.t'
p54
I5064
sS'cutbacks'
p55
I3135
sS'mired'
p56
I3062
sS'successful'
p57
I2578
sS'brings'
p58
I5663
sS'hurt'
p59
I406
sS'glass'
p60
I5826
sS'midst'
p61
I1648
sS'hold'
p62
I328
sS'circumstances'
p63
I5285
sS'locked'
p64
I435
sS'pursue'
p65
I3351
sS'plunged'
p66
I23
sS'revenues'
p67
I2747
sS'example'
p68
I276
sS'household'
p69
I2882
sS'reviewing'
p70
I1240
sS'want'
p71
I650
sS'counseling'
p72
I5351
sS'turn'
p73
I2081
sS'complaining'
p74
I5507
sS'travel'
p75
I585
sS'damage'
p76
I2565
sS'machine'
p77
I1759
sS'how'
p78
I1477
sS'hot'
p79
I413
sS'significance'
p80
I5830
sS'beauty'
p81
I3318
sS'outlawed'
p82
I3477
sS'modest'
p83
I1260
sS'raiders'
p84
I5817
sS'types'
p85
I2667
sS'effective'
p86
I2961
sS'wins'
p87
I3710
sS'headquarters'
p88
I1642
sS'democratic'
p89
I4677
sS'backdrop'
p90
I991
sS'wine'
p91
I1424
sS'senators'
p92
I4228
sS'welcomed'
p93
I4745
sS'govern'
p94
I5237
sS'vary'
p95
I4578
sS'benefited'
p96
I2458
sS'fidelity'
p97
I811
sS'stevens'
p98
I3104
sS'auditors'
p99
I3842
sS'hidden'
p100
I5491
sS'easier'
p101
I5948
sS'undercut'
p102
I5268
sS'lambert'
p103
I2218
sS'slate'
p104
I5757
sS'effects'
p105
I2454
sS'schools'
p106
I5282
sS'silver'
p107
I5837
sS'represents'
p108
I1179
sS'cftc'
p109
I5438
sS'financial'
p110
I1339
sS'woes'
p111
I4667
sS'series'
p112
I847
sS'contracting'
p113
I3817
sS'substantially'
p114
I2805
sS'laboratory'
p115
I5941
sS'message'
p116
I3912
sS'mason'
p117
I4094
sS'semiconductor'
p118
I1970
sS'encourage'
p119
I5267
sS'millions'
p120
I2992
sS'foundation'
p121
I3883
sS'assured'
p122
I1110
sS'noriega'
p123
I3508
sS'threatened'
p124
I3580
sS'surveys'
p125
I3366
sS'estimate'
p126
I1984
sS'enormous'
p127
I6038
sS'bates'
p128
I2378
sS'shelves'
p129
I1810
sS'ministries'
p130
I3855
sS'1970s'
p131
I2279
sS'r.'
p132
I2487
sS'vitro'
p133
I5825
sS'channels'
p134
I3357
sS'wash'
p135
I4443
sS'chevron'
p136
I2055
sS'specially'
p137
I3346
sS'service'
p138
I1036
sS'similarly'
p139
I5824
sS'lawsuits'
p140
I3409
sS'cooling'
p141
I386
sS'touting'
p142
I5738
sS'needed'
p143
I1677
sS'master'
p144
I5033
sS'listed'
p145
I3083
sS'bitter'
p146
I3828
sS'ranging'
p147
I3197
sS'listen'
p148
I5147
sS'rewards'
p149
I5021
sS'collapse'
p150
I4532
sS'predictably'
p151
I3273
sS'wisdom'
p152
I5186
sS'predictable'
p153
I5711
sS'defaulted'
p154
I5630
sS'showed'
p155
I2639
sS'nations'
p156
I5468
sS'project'
p157
I722
sS'idle'
p158
I2648
sS'feeling'
p159
I4755
sS'acquisition'
p160
I743
sS'boston'
p161
I761
sS'dozen'
p162
I2763
sS'affairs'
p163
I5135
sS'hub'
p164
I3959
sS'person'
p165
I1780
sS'responsible'
p166
I1375
sS'recommended'
p167
I5398
sS'causing'
p168
I3629
sS'absorbed'
p169
I5036
sS'amusing'
p170
I2918
sS'doors'
p171
I5917
sS'layoffs'
p172
I2637
sS'kremlin'
p173
I5483
sS'shipments'
p174
I1811
sS'transactions'
p175
I2241
sS'wells'
p176
I3878
sS'swiss'
p177
I2251
sS'overcapacity'
p178
I5867
sS'letter'
p179
I1176
sS'conceded'
p180
I5312
sS'drought'
p181
I2093
sS'bradford'
p182
I3242
sS'singer'
p183
I5444
sS'stupid'
p184
I5901
sS'episode'
p185
I5014
sS'antitrust'
p186
I3844
sS'professor'
p187
I3144
sS'camp'
p188
I5325
sS'came'
p189
I236
sS'advisory'
p190
I1338
sS'bomb'
p191
I5882
sS'meetings'
p192
I4744
sS'participate'
p193
I5281
sS'hungary'
p194
I3553
sS'busy'
p195
I4511
sS'headline'
p196
I3336
sS'interbank'
p197
I4573
sS'accelerate'
p198
I1852
sS'bush'
p199
I1684
sS'bloomingdale'
p200
I2529
sS'plate'
p201
I82
sS'cubic'
p202
I1326
sS'honda'
p203
I5104
sS'cushion'
p204
I4857
sS'altogether'
p205
I1854
sS'volatility'
p206
I494
sS'jaguar'
p207
I4373
sS'three-year'
p208
I1181
sS'release'
p209
I474
sS'respond'
p210
I4883
sS'leasing'
p211
I3032
sS'disaster'
p212
I1536
sS'fair'
p213
I681
sS'result'
p214
I342
sS'fail'
p215
I4126
sS'resigned'
p216
I754
sS'best'
p217
I1180
sS'lots'
p218
I5994
sS'pressures'
p219
I3614
sS'preserve'
p220
I3598
sS'wage'
p221
I1184
sS'men'
p222
I2026
sS'parallels'
p223
I4617
sS'extend'
p224
I1211
sS'nature'
p225
I5459
sS'affiliates'
p226
I5435
sS'extent'
p227
I1708
sS'downgrade'
p228
I4322
sS'debt'
p229
I596
sS'roller'
p230
I4776
sS'accident'
p231
I1554
sS'country'
p232
I928
sS'readers'
p233
I3274
sS'demanded'
p234
I3721
sS'planned'
p235
I1200
sS'argue'
p236
I884
sS'adapted'
p237
I5210
sS'asked'
p238
I1602
sS'billing'
p239
I1755
sS'union'
p240
I1031
sS'much'
p241
I436
sS'privilege'
p242
I4463
sS'life'
p243
I1186
sS'eastern'
p244
I1242
sS'worker'
p245
I4169
sS'wish'
p246
I2983
sS'dave'
p247
I5227
sS'substance'
p248
I4124
sS'child'
p249
I2857
sS'worked'
p250
I397
sS'spin'
p251
I5836
sS'diverted'
p252
I5433
sS'commerce'
p253
I1885
sS'deferring'
p254
I5260
sS'played'
p255
I725
sS'stop-loss'
p256
I305
sS'player'
p257
I4451
sS'upscale'
p258
I4056
sS'anticipating'
p259
I1115
sS'hong'
p260
I2188
sS'things'
p261
I356
sS'demands'
p262
I1874
sS'split'
p263
I4996
sS'rebound'
p264
I978
sS'european'
p265
I1665
sS'fairly'
p266
I3635
sS'ownership'
p267
I2526
sS'tune'
p268
I3345
sS'corporate'
p269
I1295
sS'opinions'
p270
I3132
sS'spurred'
p271
I256
sS'capitol'
p272
I5422
sS'financially'
p273
I2391
sS'plight'
p274
I5502
sS'portrayed'
p275
I5910
sS'succeeding'
p276
I2478
sS'previous'
p277
I1641
sS'ease'
p278
I2564
sS'had'
p279
I161
sS'emphasis'
p280
I3871
sS'easy'
p281
I139
sS'prison'
p282
I2230
sS'has'
p283
I116
sS'municipal'
p284
I1748
sS'elders'
p285
I5280
sS'posed'
p286
I5772
sS'possible'
p287
I1167
sS'firmer'
p288
I4965
sS'possibly'
p289
I4306
sS'gridlock'
p290
I5588
sS'birth'
p291
I3294
sS'unique'
p292
I1841
sS'desire'
p293
I4914
sS'steps'
p294
I3200
sS'attorney'
p295
I2434
sS'right'
p296
I499
sS'old'
p297
I1427
sS'crowd'
p298
I2801
sS'people'
p299
I496
sS'midyear'
p300
I2336
sS'crown'
p301
I2416
sS'consultants'
p302
I4614
sS'insistence'
p303
I4690
sS'for'
p304
I153
sS'bottom'
p305
I1420
sS'p.m.'
p306
I234
sS'contributing'
p307
I5622
sS'individuals'
p308
I1000
sS'surging'
p309
I3626
sS'shifting'
p310
I1566
sS'losing'
p311
I3980
sS'brokerage'
p312
I472
sS'manufacturing'
p313
I2146
sS'shaken'
p314
I5658
sS'dollars'
p315
I1236
sS'citizens'
p316
I4039
sS'annualized'
p317
I4592
sS'lacked'
p318
I3454
sS'slightly'
p319
I1704
sS'match'
p320
I2630
sS'raised'
p321
I838
sS'statements'
p322
I2470
sS'facility'
p323
I1863
sS'maxwell'
p324
I5130
sS'marshall'
p325
I3103
sS'son'
p326
I3894
sS'magazines'
p327
I3257
sS'raises'
p328
I3389
sS'consumer-products'
p329
I1799
sS'reducing'
p330
I1893
sS'defendants'
p331
I2436
sS'fabric'
p332
I1839
sS'support'
p333
I83
sS'constantly'
p334
I5162
sS'one-time'
p335
I2551
sS'joseph'
p336
I2757
sS'authorized'
p337
I3730
sS'resulted'
p338
I1993
sS'halls'
p339
I4046
sS'launching'
p340
I5819
sS'happy'
p341
I2981
sS'underestimated'
p342
I5710
sS'offer'
p343
I677
sS'robertson'
p344
I3905
sS'nov.'
p345
I690
sS'inside'
p346
I6046
sS'devices'
p347
I2137
sS'vanguard'
p348
I880
sS'jan.'
p349
I2396
sS'palm'
p350
I5723
sS'<unk>'
p351
I96
sS'passenger'
p352
I3641
sS'adopt'
p353
I5192
sS'liberal'
p354
I2118
sS'implications'
p355
I3520
sS'proven'
p356
I1262
sS'exist'
p357
I3734
sS'accounting'
p358
I1995
sS'dealer'
p359
I5100
sS'negotiations'
p360
I1166
sS'eventual'
p361
I4648
sS'floor'
p362
I64
sS'actor'
p363
I5990
sS'role'
p364
I3099
sS'ambitious'
p365
I742
sS'developers'
p366
I1358
sS'roll'
p367
I5201
sS"'s"
p368
I92
sS'models'
p369
I3645
sS'ramada'
p370
I5843
sS"'d"
p371
I571
sS'intent'
p372
I2239
sS'rolling'
p373
I4082
sS"'m"
p374
I987
sS'reorganization'
p375
I2945
sS'time'
p376
I425
sS'push'
p377
I732
sS'cincinnati'
p378
I683
sS'corps'
p379
I5224
sS'chair'
p380
I5600
sS'oversight'
p381
I5446
sS'cheap'
p382
I1847
sS'consolidation'
p383
I2624
sS'spate'
p384
I4672
sS'choice'
p385
I2383
sS'drexel'
p386
I2216
sS'stays'
p387
I3756
sS'corp.'
p388
I253
sS'exact'
p389
I5523
sS'leave'
p390
I2247
sS'settle'
p391
I1999
sS'subway'
p392
I5038
sS'defaults'
p393
I5584
sS'team'
p394
I3332
sS'depository'
p395
I4560
sS'speculation'
p396
I1516
sS'prevent'
p397
I4270
sS'prediction'
p398
I3900
sS'sign'
p399
I2575
sS'shirts'
p400
I6015
sS'hewlett-packard'
p401
I2975
sS'current'
p402
I480
sS'falling'
p403
I384
sS'boost'
p404
I2283
sS'illegally'
p405
I2183
sS'jury'
p406
I5754
sS'address'
p407
I3537
sS'alone'
p408
I1257
sS'ratio'
p409
I2731
sS'along'
p410
I1146
sS'passengers'
p411
I1051
sS'financiers'
p412
I5818
sS'redemption'
p413
I820
sS'studied'
p414
I5931
sS'funded'
p415
I5116
sS'commonly'
p416
I4368
sS'financiere'
p417
I2252
sS'studies'
p418
I1652
sS'influx'
p419
I5992
sS'tasks'
p420
I3754
sS'love'
p421
I2890
sS'prefer'
p422
I5526
sS'sky'
p423
I3792
sS'working'
p424
I2666
sS'positive'
p425
I2455
sS'angry'
p426
I4689
sS'opposed'
p427
I3567
sS'wondering'
p428
I440
sS'calgary'
p429
I3879
sS'scope'
p430
I5204
sS'prosecutor'
p431
I4470
sS'introducing'
p432
I4068
sS'apparent'
p433
I3673
sS'oregon'
p434
I2308
sS'everywhere'
p435
I4804
sS'behalf'
p436
I4364
sS'tobacco'
p437
I1616
sS'valued'
p438
I1218
sS'originally'
p439
I4246
sS'abortion'
p440
I3154
sS'believes'
p441
I762
sS'printing'
p442
I4797
sS'values'
p443
I3687
sS'believed'
p444
I2386
sS'n.y.'
p445
I4638
sS'unveiled'
p446
I2569
sS'allowed'
p447
I2700
sS'monitoring'
p448
I5316
sS'winter'
p449
I2267
sS'divided'
p450
I3620
sS's.'
p451
I4486
sS'five-year'
p452
I1671
sS'minicomputers'
p453
I3952
sS'spot'
p454
I2100
sS'fueled'
p455
I5820
sS'date'
p456
I1134
sS'such'
p457
I294
sS'acceptances'
p458
I4569
sS'data'
p459
I1756
sS'stress'
p460
I5370
sS'federal'
p461
I417
sS'natural'
p462
I1280
sS'sectors'
p463
I4842
sS'tenants'
p464
I3027
sS'ciba-geigy'
p465
I2722
sS'so'
p466
I170
sS'pulled'
p467
I4397
sS'unsolicited'
p468
I5189
sS'sell-off'
p469
I829
sS'kong'
p470
I2189
sS'professors'
p471
I4489
sS'course'
p472
I865
sS'episodes'
p473
I4177
sS'tendency'
p474
I4164
sS'lackluster'
p475
I2793
sS'jim'
p476
I4381
sS'troubles'
p477
I4328
sS'suspension'
p478
I3675
sS'troubled'
p479
I3671
sS'decades'
p480
I4616
sS'limbo'
p481
I3415
sS'modestly'
p482
I735
sS'thereby'
p483
I5835
sS'nation'
p484
I470
sS'records'
p485
I5365
sS'drilling'
p486
I3877
sS'subscribers'
p487
I2200
sS'maintaining'
p488
I3259
sS'matched'
p489
I2841
sS'shouted'
p490
I6019
sS'establishing'
p491
I3945
sS'bowling'
p492
I3764
sS'quarter'
p493
I1025
sS'square'
p494
I3071
sS'revised'
p495
I3864
sS'entering'
p496
I1047
sS'container'
p497
I5827
sS'seriously'
p498
I4915
sS'investigation'
p499
I2155
sS'suggesting'
p500
I3150
sS'formula'
p501
I1842
sS'million'
p502
I186
sS'incentives'
p503
I5087
sS'possibility'
p504
I4197
sS'quite'
p505
I4122
sS'lucrative'
p506
I5958
sS'plea'
p507
I2421
sS'remainder'
p508
I3686
sS'training'
p509
I3445
sS'programming'
p510
I3324
sS'wrong'
p511
I2819
sS'gordon'
p512
I3623
sS'routes'
p513
I1062
sS'squibb'
p514
I888
sS'saving'
p515
I5183
sS'one'
p516
I240
sS'reopen'
p517
I2674
sS'specifically'
p518
I2120
sS'vote'
p519
I1201
sS'open'
p520
I523
sS'city'
p521
I2656
sS'structured'
p522
I5419
sS'indicate'
p523
I1104
sS'draft'
p524
I5169
sS'structures'
p525
I5286
sS'cite'
p526
I2356
sS's.c.'
p527
I686
sS'ridiculous'
p528
I4076
sS'specialists'
p529
I121
sS'photographic'
p530
I1981
sS'procter'
p531
I1786
sS'depressed'
p532
I3133
sS'favors'
p533
I4071
sS'future'
p534
I259
sS'financings'
p535
I5598
sS'prospect'
p536
I3851
sS'san'
p537
I1067
sS'sam'
p538
I4673
sS'considerably'
p539
I1168
sS'turned'
p540
I4334
sS'argument'
p541
I3431
sS'deutsche'
p542
I4645
sS'prestigious'
p543
I5595
sS'say'
p544
I50
sS'financier'
p545
I3587
sS'allen'
p546
I5596
sS'turner'
p547
I3293
sS'borough'
p548
I2817
sS'saw'
p549
I1513
sS'sat'
p550
I322
sS'aside'
p551
I3692
sS'instructed'
p552
I6047
sS'note'
p553
I4974
sS'intends'
p554
I3702
sS'take'
p555
I534
sS'concern'
p556
I257
sS'high-technology'
p557
I2124
sS'ironically'
p558
I5329
sS'buffer'
p559
I839
sS'knew'
p560
I2382
sS'printed'
p561
I3923
sS'remarks'
p562
I1489
sS'house-passed'
p563
I4236
sS'pages'
p564
I2543
sS'lawn'
p565
I3763
sS'average'
p566
I22
sS'drive'
p567
I3077
sS'managing'
p568
I375
sS'jitters'
p569
I5304
sS'axa'
p570
I5066
sS'wind'
p571
I4892
sS'refining'
p572
I2068
sS'jittery'
p573
I5727
sS'atlantic'
p574
I2174
sS'mass.'
p575
I5231
sS'liquidity'
p576
I155
sS'laws'
p577
I2795
sS'madison'
p578
I2789
sS'surplus'
p579
I1876
sS'restriction'
p580
I5946
sS'lotus'
p581
I4801
sS'merit'
p582
I2022
sS'far-reaching'
p583
I4680
sS'bright'
p584
I2996
sS'steelmakers'
p585
I1674
sS'aggressive'
p586
I1366
sS'slow'
p587
I1819
sS'liberation'
p588
I6008
sS'going'
p589
I490
sS'equipped'
p590
I5107
sS'congressional'
p591
I4455
sS'dispute'
p592
I2484
sS'assistant'
p593
I4759
sS'prime'
p594
I2652
sS'resource'
p595
I5796
sS'middle-class'
p596
I5253
sS'worried'
p597
I4044
sS'roger'
p598
I5353
sS'liable'
p599
I2940
sS'worries'
p600
I3847
sS'where'
p601
I349
sS'surgery'
p602
I2497
sS'jumped'
p603
I2450
sS'representatives'
p604
I938
sS'bureau'
p605
I3278
sS'affecting'
p606
I3023
sS'enjoys'
p607
I3169
sS'jobs'
p608
I1646
sS'marvin'
p609
I4752
sS'screen'
p610
I4736
sS'concentrate'
p611
I2325
sS'jets'
p612
I1129
sS'spark'
p613
I4176
sS'concentrated'
p614
I1793
sS'many'
p615
I158
sS'deduction'
p616
I4248
sS'workplace'
p617
I5739
sS'expression'
p618
I4083
sS'allowance'
p619
I1705
sS'comeback'
p620
I3965
sS'considers'
p621
I3138
sS'boat'
p622
I3803
sS'teddy'
p623
I5516
sS'west'
p624
I1034
sS'airlines'
p625
I209
sS'concede'
p626
I3433
sS'hutton'
p627
I489
sS'combined'
p628
I2249
sS'stripped'
p629
I3283
sS'wants'
p630
I2125
sS'enable'
p631
I5811
sS'thousand'
p632
I2101
sS'formed'
p633
I1268
sS'curbing'
p634
I4287
sS'centerpiece'
p635
I3694
sS'former'
p636
I642
sS'consultant'
p637
I3209
sS'polls'
p638
I5197
sS'policies'
p639
I2117
sS'pennzoil'
p640
I3395
sS'squeezed'
p641
I4921
sS'situation'
p642
I528
sS'engaged'
p643
I4089
sS'spooked'
p644
I4490
sS'technology'
p645
I2112
sS'expenditures'
p646
I4240
sS'missiles'
p647
I3861
sS'honeywell'
p648
I4825
sS'breakdown'
p649
I5426
sS'boosted'
p650
I2452
sS'harris'
p651
I4713
sS'costa'
p652
I3226
sS'vacant'
p653
I696
sS'costs'
p654
I608
sS'summer'
p655
I1643
sS'being'
p656
I661
sS'rest'
p657
I1147
sS'weekly'
p658
I3248
sS'aspects'
p659
I4653
sS'around'
p660
I332
sS'sums'
p661
I5700
sS'unveil'
p662
I3958
sS'dark'
p663
I5141
sS'world'
p664
I1276
sS'postal'
p665
I4292
sS'vague'
p666
I5198
sS'intel'
p667
I4551
sS'beverly'
p668
I1340
sS'lebanon'
p669
I3576
sS'racial'
p670
I4113
sS'tva'
p671
I5643
sS'thinks'
p672
I1161
sS'scandals'
p673
I5668
sS'refer'
p674
I5692
sS'unsuccessfully'
p675
I4654
sS'scientific'
p676
I1019
sS'power'
p677
I1234
sS'industrialized'
p678
I1659
sS'leadership'
p679
I2989
sS'standpoint'
p680
I998
sS'thailand'
p681
I5460
sS'inflation-adjusted'
p682
I3011
sS'executives'
p683
I1527
sS'package'
p684
I4803
sS'industry'
p685
I1391
sS'favorite'
p686
I3065
sS'act'
p687
I831
sS'dallas-based'
p688
I5627
sS'bond'
p689
I3684
sS'image'
p690
I3270
sS'parties'
p691
I2374
sS'accumulated'
p692
I4659
sS'technically'
p693
I4340
sS'her'
p694
I1919
sS'philadelphia'
p695
I5214
sS'brazilian'
p696
I2329
sS'recommends'
p697
I4388
sS'complete'
p698
I2261
sS'saatchi'
p699
I2364
sS'mich'
p700
I2644
sS'technologies'
p701
I1222
sS'with'
p702
I431
sS'buying'
p703
I86
sS'pull'
p704
I3577
sS'rush'
p705
I4358
sS'october'
p706
I43
sS'monopoly'
p707
I5439
sS'politically'
p708
I2677
sS'agree'
p709
I2181
sS'detailed'
p710
I5787
sS'gone'
p711
I4255
sS'ad'
p712
I1629
sS'ag'
p713
I3839
sS'exhausted'
p714
I5013
sS'certain'
p715
I310
sS'am'
p716
I1931
sS'watches'
p717
I3266
sS'an'
p718
I175
sS'as'
p719
I18
sS'at'
p720
I130
sS'watched'
p721
I4414
sS'mandated'
p722
I4226
sS'tight'
p723
I323
sS'summit'
p724
I4678
sS'congress'
p725
I3479
sS'a.'
p726
I631
sS'gifts'
p727
I5871
sS'shipping'
p728
I1711
sS'omnibus'
p729
I5187
sS'mass'
p730
I4313
sS'nelson'
p731
I3486
sS'original'
p732
I3367
sS'consider'
p733
I3213
sS'caused'
p734
I277
sS'restated'
p735
I4966
sS'causes'
p736
I4115
sS'hunting'
p737
I5345
sS'tv'
p738
I2999
sS'tw'
p739
I5597
sS'to'
p740
I33
sS'midwest'
p741
I3970
sS'paying'
p742
I3279
sS'calif.'
p743
I1072
sS'appointment'
p744
I2393
sS'returned'
p745
I4530
sS'existing'
p746
I2129
sS'condition'
p747
I2237
sS'cable'
p748
I2576
sS'sluggish'
p749
I3783
sS'joined'
p750
I3859
sS't.'
p751
I933
sS'sand'
p752
I4756
sS'facsimile'
p753
I1745
sS'harry'
p754
I2910
sS'small'
p755
I437
sS'sank'
p756
I286
sS'kemper'
p757
I4611
sS'penalties'
p758
I4263
sS'past'
p759
I1595
sS'displays'
p760
I3919
sS'pass'
p761
I5047
sS'investment'
p762
I77
sS'richard'
p763
I409
sS'disruptions'
p764
I1123
sS'section'
p765
I4243
sS'method'
p766
I3934
sS'contrast'
p767
I1909
sS'full'
p768
I1574
sS'lobbyist'
p769
I2168
sS'hours'
p770
I1190
sS'citicorp'
p771
I4983
sS'concluding'
p772
I5425
sS'november'
p773
I1490
sS'experience'
p774
I4909
sS'prior'
p775
I3042
sS'pick'
p776
I3112
sS'action'
p777
I1901
sS'tax-free'
p778
I5181
sS'via'
p779
I3229
sS'followed'
p780
I4336
sS'petroleum'
p781
I1601
sS'more'
p782
I460
sS'door'
p783
I2719
sS'initiated'
p784
I3183
sS'company'
p785
I586
sS'tested'
p786
I5983
sS'objections'
p787
I2001
sS'keeping'
p788
I4399
sS'science'
p789
I2686
sS'mall'
p790
I682
sS'indicating'
p791
I3670
sS'morgan'
p792
I3019
sS'learn'
p793
I1476
sS'knocked'
p794
I5508
sS'beautiful'
p795
I1965
sS'mehl'
p796
I2964
sS'prompt'
p797
I5434
sS'stated'
p798
I3509
sS'accept'
p799
I1766
sS'states'
p800
I3438
sS'sense'
p801
I1957
sS'upjohn'
p802
I2753
sS'dress'
p803
I5537
sS'huge'
p804
I1076
sS'respective'
p805
I3833
sS'imminent'
p806
I3618
sS'hugo'
p807
I4768
sS'dismissed'
p808
I3429
sS'earnings'
p809
I1012
sS'plant'
p810
I1131
sS'seoul'
p811
I2445
sS'plane'
p812
I1092
sS'waves'
p813
I303
sS'pleaded'
p814
I2424
sS'sens.'
p815
I5233
sS'acquisitions'
p816
I718
sS'refuse'
p817
I4386
sS'organization'
p818
I635
sS'resemble'
p819
I5525
sS'broadcasting'
p820
I3306
sS'fundamental'
p821
I1889
sS'replied'
p822
I1920
sS'mexican'
p823
I5545
sS'fraser'
p824
I5761
sS'trade'
p825
I367
sS'resorts'
p826
I5534
sS'attitude'
p827
I4307
sS'paper'
p828
I2538
sS'signs'
p829
I4691
sS'itt'
p830
I2988
sS'its'
p831
I266
sS'rapidly'
p832
I3043
sS'termed'
p833
I1695
sS'tentatively'
p834
I4706
sS'severely'
p835
I5978
sS'propose'
p836
I5567
sS'speculate'
p837
I1596
sS'coping'
p838
I1709
sS'always'
p839
I1824
sS'found'
p840
I1626
sS'reactions'
p841
I4932
sS'england'
p842
I560
sS'reduce'
p843
I1875
sS'slowdown'
p844
I2534
sS'investigated'
p845
I5912
sS'advertisers'
p846
I2420
sS'operation'
p847
I1313
sS'really'
p848
I985
sS'anxious'
p849
I4310
sS'missed'
p850
I4398
sS'blacks'
p851
I3487
sS'research'
p852
I2319
sS'ftc'
p853
I2000
sS'occurs'
p854
I4855
sS'highway'
p855
I3930
sS'nervously'
p856
I4539
sS'belief'
p857
I3030
sS'risen'
p858
I1149
sS'1920s'
p859
I4156
sS'qualify'
p860
I2282
sS'imagine'
p861
I4155
sS'rises'
p862
I1703
sS'producers'
p863
I1405
sS'owners'
p864
I2838
sS'retained'
p865
I5838
sS'major'
p866
I317
sS'slipped'
p867
I4555
sS'succeeded'
p868
I5784
sS'number'
p869
I583
sS'contended'
p870
I5690
sS'guess'
p871
I4356
sS'heads'
p872
I247
sS'guest'
p873
I3737
sS'jet'
p874
I1041
sS'threatening'
p875
I2309
sS'calculations'
p876
I4702
sS'relationship'
p877
I2221
sS'interviewed'
p878
I1428
sS'immediate'
p879
I1170
sS'appreciation'
p880
I4727
sS'rain'
p881
I2268
sS'licensed'
p882
I2160
sS'grace'
p883
I5767
sS'computer-guided'
p884
I315
sS'determined'
p885
I2196
sS'marriage'
p886
I4162
sS'beneficial'
p887
I4903
sS'fights'
p888
I4051
sS'sell'
p889
I292
sS'tough'
p890
I2591
sS'reliance'
p891
I1390
sS'also'
p892
I870
sS'recognizing'
p893
I5246
sS'internal'
p894
I454
sS'play'
p895
I3611
sS'staffers'
p896
I3330
sS'anti-takeover'
p897
I4647
sS'virus'
p898
I5165
sS'plan'
p899
I1269
sS'accepting'
p900
I5259
sS'toronto-based'
p901
I2717
sS'seize'
p902
I3516
sS'sometimes'
p903
I1933
sS'cover'
p904
I1460
sS'three-month'
p905
I4707
sS'barrel'
p906
I2085
sS'dragged'
p907
I5084
sS'gold'
p908
I5372
sS'midwestern'
p909
I3963
sS'defended'
p910
I4448
sS'bookings'
p911
I6006
sS'nasdaq'
p912
I3087
sS'session'
p913
I3538
sS'impact'
p914
I2050
sS'consistently'
p915
I1429
sS'writes'
p916
I2872
sS'writer'
p917
I2912
sS'failed'
p918
I45
sS'wayne'
p919
I5954
sS'olivetti'
p920
I2110
sS'equity'
p921
I119
sS'giants'
p922
I1444
sS'financial-services'
p923
I4899
sS'dependent'
p924
I3701
sS'actress'
p925
I726
sS'closely'
p926
I361
sS'reporters'
p927
I1954
sS'enemy'
p928
I5678
sS'cry'
p929
I5137
sS'banking'
p930
I709
sS'river'
p931
I2889
sS'prospectus'
p932
I5004
sS'rumored'
p933
I5839
sS'set'
p934
I491
sS'activists'
p935
I3480
sS'instituted'
p936
I2760
sS'sex'
p937
I2834
sS'see'
p938
I538
sS'sec'
p939
I2472
sS'sea'
p940
I2353
sS'regulator'
p941
I5403
sS'#'
p942
I1271
sS'spirits'
p943
I1425
sS'movie'
p944
I3720
sS'currently'
p945
I598
sS'diluted'
p946
I5232
sS'available'
p947
I790
sS'targeted'
p948
I1946
sS'brewing'
p949
I2404
sS'respondents'
p950
I4010
sS'renewed'
p951
I526
sS'dividend'
p952
I901
sS'legislature'
p953
I3578
sS'prospects'
p954
I258
sS'improved'
p955
I2537
sS'barely'
p956
I31
sS'warner-lambert'
p957
I2751
sS'improves'
p958
I5798
sS'long-term'
p959
I768
sS'whole'
p960
I1395
sS'bell'
p961
I3633
sS'loan'
p962
I3218
sS'leon'
p963
I4212
sS'church'
p964
I5030
sS'desktop'
p965
I4807
sS'belt'
p966
I3986
sS'publishing'
p967
I2024
sS'monthly'
p968
I853
sS'acceptance'
p969
I4563
sS'convicted'
p970
I4431
sS'firm'
p971
I473
sS'champion'
p972
I2651
sS'nabisco'
p973
I1609
sS'fire'
p974
I5410
sS'fund'
p975
I801
sS'representative'
p976
I1872
sS'insiders'
p977
I5749
sS'towns'
p978
I2911
sS'handling'
p979
I1761
sS'uncertain'
p980
I2663
sS'expanded'
p981
I1822
sS'budget'
p982
I4200
sS'technical'
p983
I974
sS'momentum'
p984
I2900
sS'error'
p985
I4369
sS'styles'
p986
I1910
sS'pound'
p987
I1450
sS'hoping'
p988
I4629
sS'backing'
p989
I3931
sS'averaging'
p990
I2084
sS'motors'
p991
I2596
sS'centennial'
p992
I1316
sS'chase'
p993
I4660
sS'funny'
p994
I2845
sS'barney'
p995
I4712
sS'fibers'
p996
I4956
sS'savings-and-loan'
p997
I3178
sS'read'
p998
I3235
sS'virtually'
p999
I1701
sS'survey'
p1000
I4006
sS'd.c.'
p1001
I4721
sS'mosbacher'
p1002
I1887
sS'levels'
p1003
I311
sS'medicaid'
p1004
I4251
sS'implement'
p1005
I1936
sS'recent'
p1006
I878
sS'alleging'
p1007
I2007
sS'concrete'
p1008
I1888
sS'ltd.'
p1009
I1228
sS'kelly'
p1010
I5090
sS'clearance'
p1011
I3815
sS'rudolph'
p1012
I4107
sS'amr'
p1013
I101
sS'conclusions'
p1014
I2698
sS'advertisements'
p1015
I5037
sS'signals'
p1016
I2169
sS'eager'
p1017
I5239
sS'parents'
p1018
I2875
sS'location'
p1019
I4579
sS'sydney'
p1020
I659
sS'surprised'
p1021
I1475
sS'australia'
p1022
I660
sS'emergency'
p1023
I2295
sS'format'
p1024
I3301
sS'couple'
p1025
I2592
sS'suffering'
p1026
I5123
sS'baskets'
p1027
I366
sS'l.j.'
p1028
I614
sS'falcon'
p1029
I5701
sS'projects'
p1030
I1241
sS'formal'
p1031
I1679
sS'imposed'
p1032
I5407
sS'd'
p1033
I5110
sS'dai-ichi'
p1034
I5052
sS'consensus'
p1035
I1691
sS'communications'
p1036
I2012
sS'continue'
p1037
I2339
sS'yields'
p1038
I902
sS'ivan'
p1039
I2213
sS'privately'
p1040
I546
sS'concedes'
p1041
I3778
sS'senate'
p1042
I4192
sS'spring'
p1043
I1454
sS'b.'
p1044
I485
sS'bounce'
p1045
I5106
sS'mighty'
p1046
I1857
sS'pall'
p1047
I5619
sS'palo'
p1048
I4631
sS'shall'
p1049
I4465
sS'52-week'
p1050
I786
sS'dating'
p1051
I2901
sS'be'
p1052
I244
sS'agreement'
p1053
I335
sS'departures'
p1054
I4284
sS'santa'
p1055
I2211
sS'relating'
p1056
I3663
sS'by'
p1057
I85
sS'wildlife'
p1058
I5464
sS'anything'
p1059
I1171
sS'repair'
p1060
I3890
sS'colorado'
p1061
I5445
sS'garbage'
p1062
I1434
sS'into'
p1063
I401
sS'ministers'
p1064
I5691
sS'appropriate'
p1065
I3665
sS'primarily'
p1066
I3053
sS'spending'
p1067
I1634
sS'bargaining'
p1068
I1135
sS'submit'
p1069
I2690
sS'crackdown'
p1070
I3544
sS'suit'
p1071
I1261
sS'opens'
p1072
I4798
sS'blueprint'
p1073
I1902
sS'royalties'
p1074
I2019
sS'atlantis'
p1075
I3523
sS'elsewhere'
p1076
I1238
sS'inches'
p1077
I4792
sS'jewish'
p1078
I2825
sS'year-ago'
p1079
I1305
sS'slump'
p1080
I3020
sS'inched'
p1081
I4992
sS'deductions'
p1082
I5648
sS'link'
p1083
I343
sS'pacific'
p1084
I109
sS'line'
p1085
I414
sS'considerable'
p1086
I4020
sS'posted'
p1087
I855
sS'refinancing'
p1088
I4709
sS'cie'
p1089
I5069
sS'redeemed'
p1090
I4864
sS'up'
p1091
I81
sS'us'
p1092
I954
sS'maturity'
p1093
I4981
sS'mature'
p1094
I766
sS'medical'
p1095
I1771
sS'armstrong'
p1096
I5046
sS'start-up'
p1097
I3892
sS'influence'
p1098
I3096
sS'u.s.a'
p1099
I4559
sS'struggled'
p1100
I5789
sS'edwards'
p1101
I5360
sS'post-crash'
p1102
I325
sS'definitely'
p1103
I4994
sS'revision'
p1104
I5220
sS'elements'
p1105
I3541
sS'o.'
p1106
I2559
sS'prosecution'
p1107
I4477
sS'robots'
p1108
I4510
sS'occurred'
p1109
I197
sS'sides'
p1110
I1142
sS'mood'
p1111
I6020
sS'ago'
p1112
I818
sS'lane'
p1113
I486
sS'land'
p1114
I697
sS'age'
p1115
I2828
sS'beverage'
p1116
I5115
sS'fresh'
p1117
I4835
sS'having'
p1118
I1105
sS'code'
p1119
I658
sS'saying'
p1120
I1177
sS'broaden'
p1121
I5089
sS'results'
p1122
I1399
sS'soften'
p1123
I4622
sS'illustrated'
p1124
I5025
sS'softer'
p1125
I2547
sS'broader'
p1126
I1445
sS'centers'
p1127
I705
sS'seemed'
p1128
I942
sS'concerned'
p1129
I4346
sS'young'
p1130
I2422
sS'send'
p1131
I1064
sS'citing'
p1132
I2448
sS'resources'
p1133
I1426
sS'probe'
p1134
I2905
sS'garden'
p1135
I2815
sS'continues'
p1136
I1215
sS'reopened'
p1137
I289
sS'continued'
p1138
I340
sS'minerals'
p1139
I5797
sS'categories'
p1140
I3050
sS'sen.'
p1141
I3288
sS'real-estate'
p1142
I616
sS'experiencing'
p1143
I2808
sS'fewer'
p1144
I4011
sS'try'
p1145
I1728
sS'threat'
p1146
I3621
sS'race'
p1147
I3975
sS'discounting'
p1148
I2572
sS'unprofitable'
p1149
I2614
sS'video'
p1150
I5779
sS'assembly'
p1151
I2599
sS'dynamics'
p1152
I4828
sS'victor'
p1153
I3588
sS'index'
p1154
I94
sS'lehman'
p1155
I488
sS'expressed'
p1156
I3506
sS'laurence'
p1157
I3145
sS'turnaround'
p1158
I1497
sS'firms'
p1159
I60
sS'equivalent'
p1160
I331
sS'proliferation'
p1161
I4865
sS'led'
p1162
I626
sS'respectively'
p1163
I849
sS'gathered'
p1164
I4933
sS'delivering'
p1165
I5331
sS'let'
p1166
I860
sS'consideration'
p1167
I3519
sS'closing'
p1168
I835
sS'great'
p1169
I562
sS'receive'
p1170
I3228
sS'involved'
p1171
I506
sS'casino'
p1172
I5846
sS'fetch'
p1173
I2388
sS'resulting'
p1174
I597
sS'opinion'
p1175
I3155
sS'residents'
p1176
I3056
sS'makes'
p1177
I2870
sS'maker'
p1178
I1018
sS'involves'
p1179
I5258
sS'tools'
p1180
I2122
sS'standing'
p1181
I5414
sS'confidence'
p1182
I4528
sS'andreas'
p1183
I5669
sS'illegal'
p1184
I5462
sS'theme'
p1185
I4157
sS'next'
p1186
I694
sS'doubt'
p1187
I2610
sS'doubling'
p1188
I3914
sS'midday'
p1189
I5636
sS'businessland'
p1190
I3913
sS'dealings'
p1191
I5705
sS'carrying'
p1192
I4520
sS'sharply'
p1193
I391
sS'baby'
p1194
I5044
sS'roller-coaster'
p1195
I5354
sS'charity'
p1196
I4024
sS'customer'
p1197
I3920
sS'mid-1970s'
p1198
I5853
sS'this'
p1199
I35
sS'challenge'
p1200
I2492
sS'clients'
p1201
I464
sS'insists'
p1202
I3852
sS'pour'
p1203
I4906
sS'publications'
p1204
I2556
sS'slid'
p1205
I1533
sS'weaker'
p1206
I2067
sS'process'
p1207
I1542
sS'lock'
p1208
I368
sS'slim'
p1209
I5989
sS'purposes'
p1210
I5564
sS'pieces'
p1211
I3387
sS'high'
p1212
I1712
sS'slip'
p1213
I4817
sS'reynolds'
p1214
I3240
sS'bolstered'
p1215
I903
sS'weaken'
p1216
I4959
sS'educational'
p1217
I5176
sS'struggling'
p1218
I3796
sS'delay'
p1219
I1992
sS'crandall'
p1220
I3006
sS'pair'
p1221
I5023
sS'comedy'
p1222
I4134
sS'establishment'
p1223
I4939
sS'blocks'
p1224
I87
sS'tied'
p1225
I1432
sS'halted'
p1226
I300
sS'weighed'
p1227
I430
sS'notebook'
p1228
I4782
sS'fits'
p1229
I4787
sS'ties'
p1230
I3534
sS'efficiently'
p1231
I5791
sS'realized'
p1232
I591
sS'boeing'
p1233
I605
sS'manpower'
p1234
I5194
sS'element'
p1235
I2083
sS'commodities'
p1236
I4953
sS'allow'
p1237
I1247
sS'counted'
p1238
I5279
sS'houston'
p1239
I1037
sS'reversal'
p1240
I3100
sS'producer'
p1241
I1298
sS'produces'
p1242
I5799
sS'move'
p1243
I950
sS'doubtful'
p1244
I5963
sS'produced'
p1245
I1764
sS'year-earlier'
p1246
I1401
sS'warren'
p1247
I3118
sS'perfect'
p1248
I5134
sS'chosen'
p1249
I1821
sS'meantime'
p1250
I5631
sS'communication'
p1251
I1120
sS'derivative'
p1252
I5423
sS'physicians'
p1253
I4288
sS'outlined'
p1254
I5234
sS'disrupted'
p1255
I5572
sS'realize'
p1256
I1757
sS'presidential'
p1257
I5427
sS'a.p.'
p1258
I3597
sS'merge'
p1259
I3809
sS'accounts'
p1260
I1462
sS'beneath'
p1261
I5591
sS'suitors'
p1262
I5816
sS'doing'
p1263
I140
sS'societe'
p1264
I5072
sS'society'
p1265
I5240
sS'books'
p1266
I5301
sS'agriculture'
p1267
I2280
sS'witness'
p1268
I4466
sS"'"
p1269
I825
sS'dismissal'
p1270
I3440
sS'dominated'
p1271
I5646
sS'shut'
p1272
I2647
sS'regulators'
p1273
I3413
sS'surely'
p1274
I5179
sS'regulatory'
p1275
I3690
sS'scary'
p1276
I1960
sS'dubbed'
p1277
I3812
sS'could'
p1278
I74
sS'david'
p1279
I3676
sS'length'
p1280
I3165
sS'assumed'
p1281
I4761
sS'davis'
p1282
I2414
sS'scare'
p1283
I4537
sS'scene'
p1284
I4741
sS'owned'
p1285
I1593
sS'stark'
p1286
I5606
sS'owner'
p1287
I3063
sS'mandatory'
p1288
I5242
sS'nyse'
p1289
I5432
sS'legislative'
p1290
I4437
sS'vetoed'
p1291
I5944
sS'deceptive'
p1292
I5677
sS'los'
p1293
I2411
sS'ordering'
p1294
I3674
sS'system'
p1295
I408
sS'state-controlled'
p1296
I5560
sS'painful'
p1297
I1002
sS'interests'
p1298
I1446
sS'enforcement'
p1299
I6034
sS'stars'
p1300
I3325
sS'elite'
p1301
I3299
sS'haven'
p1302
I2426
sS'steel'
p1303
I1656
sS'colleagues'
p1304
I1963
sS'bother'
p1305
I2998
sS'reacted'
p1306
I3901
sS'roberts'
p1307
I1619
sS'appealing'
p1308
I5133
sS'briefing'
p1309
I3290
sS'federally'
p1310
I5881
sS'steep'
p1311
I840
sS'false'
p1312
I4894
sS'partnership'
p1313
I1331
sS'tonight'
p1314
I3309
sS'natural-gas'
p1315
I5765
sS'defending'
p1316
I3124
sS'blockbuster'
p1317
I2776
sS'clearly'
p1318
I3988
sS'viewed'
p1319
I1523
sS'studying'
p1320
I2662
sS'cross-border'
p1321
I3818
sS'equaling'
p1322
I5664
sS'campeau'
p1323
I252
sS'korean'
p1324
I2443
sS'soap'
p1325
I2927
sS'soar'
p1326
I5377
sS'pete'
p1327
I4253
sS'asserts'
p1328
I5972
sS'foreign-currency'
p1329
I2748
sS'altman'
p1330
I674
sS'visa'
p1331
I5472
sS'device'
p1332
I3527
sS'cabinet'
p1333
I5696
sS'segment'
p1334
I4805
sS'so-called'
p1335
I1406
sS'sweeping'
p1336
I5082
sS'stronger'
p1337
I1736
sS'face'
p1338
I2636
sS'mechanical'
p1339
I456
sS'fact'
p1340
I1697
sS'vacancy'
p1341
I5863
sS'bring'
p1342
I498
sS'lloyd'
p1343
I4247
sS'rough'
p1344
I958
sS'economist'
p1345
I3619
sS'decade'
p1346
I2615
sS'principal'
p1347
I3661
sS'jay'
p1348
I627
sS'should'
p1349
I1577
sS'terminal'
p1350
I5054
sS'planted'
p1351
I2272
sS'tape'
p1352
I5492
sS'printers'
p1353
I3918
sS'riding'
p1354
I4734
sS'hope'
p1355
I924
sS'meant'
p1356
I5893
sS'chicago-based'
p1357
I4601
sS'handle'
p1358
I75
sS'bonds'
p1359
I2225
sS'familiar'
p1360
I721
sS'exchanges'
p1361
I415
sS'committees'
p1362
I4406
sS'a.c.'
p1363
I4870
sS'wilmington'
p1364
I4957
sS'taxes'
p1365
I4277
sS'stuff'
p1366
I3748
sS'ohio'
p1367
I700
sS'withstand'
p1368
I4922
sS'temporarily'
p1369
I338
sS'edition'
p1370
I2595
sS'subcommittee'
p1371
I4403
sS'bidders'
p1372
I2720
sS'packed'
p1373
I5128
sS'wire'
p1374
I3358
sS'nationwide'
p1375
I5571
sS'nuclear'
p1376
I4295
sS'ends'
p1377
I3962
sS'negotiated'
p1378
I1661
sS'lawsuit'
p1379
I2010
sS'restrictions'
p1380
I4852
sS'figured'
p1381
I5522
sS'drug'
p1382
I893
sS'etc'
p1383
I4428
sS'figures'
p1384
I867
sS'adjusted'
p1385
I3646
sS'co'
p1386
I2025
sS'conclude'
p1387
I1700
sS'ca'
p1388
I148
sS'near-term'
p1389
I2360
sS'incest'
p1390
I3504
sS'labor'
p1391
I1153
sS'midland'
p1392
I4951
sS'quotas'
p1393
I1654
sS'waste'
p1394
I1307
sS'break-even'
p1395
I1398
sS'trinity'
p1396
I5913
sS'dresdner'
p1397
I5541
sS'c.'
p1398
I822
sS'c$'
p1399
I1255
sS'atlanta'
p1400
I652
sS'spain'
p1401
I3770
sS'laser'
p1402
I1021
sS'va'
p1403
I3210
sS'diversification'
p1404
I4327
sS'site'
p1405
I2942
sS'bozell'
p1406
I2444
sS'optimistic'
p1407
I4300
sS'terrorist'
p1408
I5720
sS'russell'
p1409
I4541
sS'microsystems'
p1410
I3907
sS'ariz.'
p1411
I1044
sS'terrorism'
p1412
I5721
sS'ball'
p1413
I448
sS'columbia'
p1414
I685
sS'raymond'
p1415
I4461
sS'drink'
p1416
I4059
sS'upon'
p1417
I3483
sS'v.'
p1418
I4475
sS'forecasts'
p1419
I3865
sS'mount'
p1420
I5768
sS'identity'
p1421
I3365
sS'audit'
p1422
I2475
sS'off'
p1423
I387
sS'indonesia'
p1424
I5461
sS'patterns'
p1425
I2524
sS'command'
p1426
I3070
sS'audio'
p1427
I5520
sS'drawing'
p1428
I1962
sS'restructure'
p1429
I2741
sS'softening'
p1430
I2045
sS'less'
p1431
I461
sS'moments'
p1432
I4171
sS'rooms'
p1433
I4061
sS'predicts'
p1434
I972
sS'paul'
p1435
I2806
sS'merksamer'
p1436
I746
sS'residential'
p1437
I1334
sS'combine'
p1438
I2245
sS'exempt'
p1439
I4281
sS'increased'
p1440
I936
sS'government'
p1441
I1246
sS'haul'
p1442
I1431
sS'five'
p1443
I1738
sS'chairs'
p1444
I5655
sS'accelerating'
p1445
I2063
sS'become'
p1446
I764
sS'amendment'
p1447
I4413
sS'gaining'
p1448
I5716
sS'indications'
p1449
I4576
sS'thief'
p1450
I2880
sS'springs'
p1451
I4934
sS'recognition'
p1452
I5998
sS'sufficiently'
p1453
I3814
sS'leveraged'
p1454
I261
sS'salaries'
p1455
I3327
sS'does'
p1456
I2269
sS'schedule'
p1457
I3361
sS'pressure'
p1458
I76
sS'accompanied'
p1459
I5443
sS'loans'
p1460
I2966
sS'vs.'
p1461
I3157
sS'stage'
p1462
I3333
sS'gained'
p1463
I1820
sS'sister'
p1464
I3337
sS'debentures'
p1465
I4718
sS'angeles'
p1466
I2412
sS'holdings'
p1467
I617
sS'seeds'
p1468
I5042
sS'insufficient'
p1469
I3678
sS'massachusetts'
p1470
I3977
sS'alliance'
p1471
I5760
sS'letters'
p1472
I5138
sS'commitment'
p1473
I3385
sS'lung'
p1474
I5770
sS'merc'
p1475
I5393
sS'mere'
p1476
I1448
sS'negotiable'
p1477
I4567
sS'terminated'
p1478
I5556
sS'spouse'
p1479
I3995
sS'housing'
p1480
I3022
sS'peters'
p1481
I5732
sS'frustration'
p1482
I3161
sS'troubling'
p1483
I4531
sS'pretax'
p1484
I3422
sS'naturally'
p1485
I5703
sS'fiscal'
p1486
I1731
sS'pressed'
p1487
I6032
sS'delivery'
p1488
I1090
sS'lowered'
p1489
I3254
sS'count'
p1490
I4004
sS'evident'
p1491
I5308
sS'official'
p1492
I1927
sS'imbalances'
p1493
I124
sS'excitement'
p1494
I3382
sS'placed'
p1495
I226
sS'convince'
p1496
I1904
sS'distribution'
p1497
I1480
sS'irish'
p1498
I4150
sS'contribute'
p1499
I2501
sS'slowing'
p1500
I5638
sS'inc'
p1501
I636
sS'compared'
p1502
I1400
sS'nonetheless'
p1503
I3743
sS'lately'
p1504
I3896
sS'details'
p1505
I2153
sS'reckless'
p1506
I4990
sS'francisco'
p1507
I3075
sS'monday'
p1508
I5
sS'outlets'
p1509
I3421
sS'chance'
p1510
I379
sS'repeal'
p1511
I4242
sS'exposure'
p1512
I5813
sS'spokesmen'
p1513
I2704
sS'lasted'
p1514
I4345
sS'rule'
p1515
I3399
sS'lift'
p1516
I5611
sS'compete'
p1517
I1266
sS'pension'
p1518
I4261
sS'rural'
p1519
I4252
sS'tax-exempt'
p1520
I5898
sS'gardens'
p1521
I4637
sS'searle'
p1522
I4962
sS'consolidated'
p1523
I2643
sS'magnetic'
p1524
I4187
sS'doubts'
p1525
I5650
sS'desirable'
p1526
I5530
sS'controversial'
p1527
I5401
sS'saved'
p1528
I727
sS'relationships'
p1529
I3605
sS'votes'
p1530
I3119
sS'voter'
p1531
I5899
sS'edward'
p1532
I2541
sS'voted'
p1533
I3540
sS'worth'
p1534
I2960
sS'sellers'
p1535
I66
sS'exporters'
p1536
I1717
sS'postpone'
p1537
I1035
sS'pachinko'
p1538
I5456
sS'investigator'
p1539
I2891
sS'spacecraft'
p1540
I3528
sS'monsanto'
p1541
I4961
sS'announced'
p1542
I602
sS'jamaica'
p1543
I2432
sS'phones'
p1544
I1763
sS'horn'
p1545
I6017
sS'machines'
p1546
I297
sS'established'
p1547
I2732
sS'disk'
p1548
I4188
sS'london-based'
p1549
I708
sS'above'
p1550
I845
sS'toll'
p1551
I1547
sS'officially'
p1552
I2786
sS'consisting'
p1553
I3592
sS'told'
p1554
I467
sS'crunch'
p1555
I255
sS'simultaneously'
p1556
I518
sS'conglomerate'
p1557
I2304
sS'protection'
p1558
I653
sS'referring'
p1559
I5413
sS'obtained'
p1560
I5068
sS'watchers'
p1561
I3172
sS'items'
p1562
I1440
sS'employees'
p1563
I1125
sS'stressed'
p1564
I1898
sS'postponed'
p1565
I5644
sS'secure'
p1566
I4022
sS'highly'
p1567
I260
sS'thrust'
p1568
I1289
sS'opportunities'
p1569
I483
sS'total'
p1570
I581
sS'plot'
p1571
I4160
sS'palestinian'
p1572
I5719
sS'coins'
p1573
I1767
sS'negative'
p1574
I1369
sS'indiana'
p1575
I3966
sS'award'
p1576
I3465
sS'aware'
p1577
I5570
sS'blocking'
p1578
I5512
sS'word'
p1579
I1922
sS'permits'
p1580
I4938
sS'work'
p1581
I1046
sS'theories'
p1582
I1907
sS'era'
p1583
I4749
sS'already'
p1584
I117
sS'workstations'
p1585
I2460
sS'indicated'
p1586
I3500
sS'cited'
p1587
I2140
sS'indicates'
p1588
I4008
sS'ual'
p1589
I100
sS'totaled'
p1590
I774
sS'recovery'
p1591
I1309
sS'carriers'
p1592
I1033
sS'provide'
p1593
I1714
sS'infringement'
p1594
I5497
sS'interview'
p1595
I647
sS'ordinary'
p1596
I2844
sS'resignation'
p1597
I2810
sS'offshore'
p1598
I1321
sS'after'
p1599
I42
sS'customs'
p1600
I5576
sS'law'
p1601
I2956
sS'las'
p1602
I1060
sS'appreciate'
p1603
I4018
sS'stimulate'
p1604
I2331
sS'green'
p1605
I6012
sS'order'
p1606
I1217
sS'office'
p1607
I691
sS'consent'
p1608
I2950
sS'satisfied'
p1609
I3463
sS'frequency'
p1610
I5632
sS'innovative'
p1611
I5506
sS'japan'
p1612
I1662
sS'mayor'
p1613
I4042
sS'denver'
p1614
I1836
sS'production'
p1615
I773
sS'damages'
p1616
I2232
sS'eventually'
p1617
I288
sS'them'
p1618
I984
sS'affected'
p1619
I1073
sS'safe'
p1620
I4154
sS'break'
p1621
I1987
sS'bang'
p1622
I5955
sS'they'
p1623
I270
sS'bank'
p1624
I595
sS'brouwer'
p1625
I5347
sS'rocky'
p1626
I5790
sS'reasonably'
p1627
I4893
sS'reasonable'
p1628
I4429
sS'lifted'
p1629
I5985
sS'crimes'
p1630
I4639
sS'burnham'
p1631
I2217
sS'network'
p1632
I1611
sS'daniel'
p1633
I2292
sS'medicine'
p1634
I2771
sS'hooker'
p1635
I615
sS'forth'
p1636
I4446
sS'disputed'
p1637
I5513
sS'barrier'
p1638
I3804
sS'standard'
p1639
I89
sS'campaigns'
p1640
I2799
sS'pro-democracy'
p1641
I3546
sS'recovering'
p1642
I5933
sS'created'
p1643
I1337
sS'creates'
p1644
I3927
sS'renew'
p1645
I4859
sS'oppose'
p1646
I3585
sS'incorporated'
p1647
I5077
sS'another'
p1648
I407
sS'comic'
p1649
I4170
sS'electronic'
p1650
I3249
sS'illustrate'
p1651
I3207
sS'timothy'
p1652
I5547
sS'rated'
p1653
I4975
sS'hedging'
p1654
I4620
sS'takeovers'
p1655
I251
sS'approximately'
p1656
I1991
sS'rates'
p1657
I995
sS'john'
p1658
I392
sS'dogs'
p1659
I3762
sS'190-point'
p1660
I4687
sS'diversified'
p1661
I4949
sS'albert'
p1662
I4753
sS'rejected'
p1663
I2255
sS'toronto'
p1664
I2710
sS'target'
p1665
I3007
sS'n.h.'
p1666
I5539
sS'negotiator'
p1667
I1882
sS'merck'
p1668
I2750
sS'historical'
p1669
I4999
sS'solely'
p1670
I5728
sS'minus'
p1671
I4492
sS'manner'
p1672
I1364
sS'forced'
p1673
I1189
sS'strength'
p1674
I1150
sS'genuine'
p1675
I4091
sS'latter'
p1676
I4131
sS'indexes'
p1677
I514
sS'materials'
p1678
I3649
sS'luxury'
p1679
I2027
sS'forces'
p1680
I3111
sS'completed'
p1681
I693
sS'unsecured'
p1682
I4565
sS'nobody'
p1683
I519
sS'bruce'
p1684
I823
sS'hammond'
p1685
I1139
sS'involving'
p1686
I5945
sS'germany'
p1687
I3552
sS'phase'
p1688
I5812
sS'germans'
p1689
I3548
sS'neighborhoods'
p1690
I3040
sS'newcomers'
p1691
I3109
sS'deeply'
p1692
I5908
sS'voting'
p1693
I4120
sS'responded'
p1694
I3603
sS'reserve'
p1695
I418
sS'd.'
p1696
I4203
sS'lewis'
p1697
I3017
sS'anniversary'
p1698
I4497
sS'glasnost'
p1699
I5121
sS'pursuing'
p1700
I1917
sS'adequate'
p1701
I1354
sS'do'
p1702
I380
sS'de'
p1703
I3489
sS'preferred'
p1704
I2729
sS'du'
p1705
I3461
sS'runs'
p1706
I824
sS'covering'
p1707
I5055
sS'lexington'
p1708
I4739
sS'analytical'
p1709
I968
sS'prudential-bache'
p1710
I442
sS'steam'
p1711
I4143
sS'secretary'
p1712
I1886
sS'w.'
p1713
I2480
sS'observed'
p1714
I4940
sS'depends'
p1715
I3857
sS'projections'
p1716
I2773
sS'discussions'
p1717
I3568
sS'draws'
p1718
I3298
sS'away'
p1719
I1528
sS'afloat'
p1720
I5307
sS'unable'
p1721
I51
sS'cooperation'
p1722
I2675
sS'co.'
p1723
I451
sS'accord'
p1724
I1216
sS'terms'
p1725
I195
sS'wo'
p1726
I980
sS'handful'
p1727
I2209
sS'convertible'
p1728
I4717
sS'downgraded'
p1729
I4326
sS'received'
p1730
I795
sS'essentially'
p1731
I1721
sS'cox'
p1732
I2048
sS'ill'
p1733
I1537
sS'receives'
p1734
I5078
sS'requests'
p1735
I809
sS'disappears'
p1736
I2931
sS'old-fashioned'
p1737
I4174
sS'department-store'
p1738
I675
sS'con'
p1739
I4036
sS'year-end'
p1740
I3816
sS'widen'
p1741
I4988
sS'royal'
p1742
I2415
sS'tons'
p1743
I776
sS'tony'
p1744
I4522
sS'telecommunications'
p1745
I1737
sS'speak'
p1746
I3134
sS'cities\\/abc'
p1747
I106
sS'engines'
p1748
I1221
sS'sachs'
p1749
I3237
sS'flexible'
p1750
I2145
sS'dozens'
p1751
I3425
sS'families'
p1752
I2873
sS'innocent'
p1753
I5484
sS'concerning'
p1754
I550
sS'ogilvy'
p1755
I2447
sS'applied'
p1756
I3400
sS'physician'
p1757
I4290
sS'inhibit'
p1758
I1891
sS'east'
p1759
I930
sS'publicly'
p1760
I2697
sS'air'
p1761
I283
sS'aim'
p1762
I3084
sS'property'
p1763
I1360
sS'launched'
p1764
I5470
sS'mistake'
p1765
I5510
sS'world-wide'
p1766
I1951
sS'conn'
p1767
I4608
sS'wooing'
p1768
I1645
sS'confirmed'
p1769
I1620
sS'perform'
p1770
I5245
sS'jerry'
p1771
I2665
sS'convictions'
p1772
I5271
sS'independent'
p1773
I1278
sS'hang'
p1774
I4389
sS'counterparts'
p1775
I3731
sS'hand'
p1776
I321
sS'blamed'
p1777
I363
sS'kept'
p1778
I383
sS'hispanic'
p1779
I2594
sS'contact'
p1780
I1141
sS'the'
p1781
I9
sS'musical'
p1782
I5804
sS'epa'
p1783
I2937
sS'quoted'
p1784
I355
sS'quotes'
p1785
I4416
sS'thanks'
p1786
I3993
sS'jose'
p1787
I2589
sS'hills'
p1788
I1341
sS'cornell'
p1789
I4770
sS'fared'
p1790
I2745
sS'amoco'
p1791
I2056
sS'passive'
p1792
I2635
sS'wright'
p1793
I5904
sS'spread'
p1794
I290
sS'transformed'
p1795
I5293
sS'board'
p1796
I63
sS'marginal'
p1797
I2913
sS'fares'
p1798
I1318
sS'freeport-mcmoran'
p1799
I5794
sS'arab'
p1800
I3564
sS'boxes'
p1801
I2323
sS'ginnie'
p1802
I5642
sS'retreat'
p1803
I2062
sS'disadvantage'
p1804
I3355
sS'eroded'
p1805
I4941
sS'a.g.'
p1806
I5359
sS'securities'
p1807
I131
sS'night'
p1808
I3706
sS'security'
p1809
I711
sS'born'
p1810
I5161
sS'confusing'
p1811
I4671
sS'denies'
p1812
I5509
sS'humor'
p1813
I4116
sS'comments'
p1814
I476
sS'asking'
p1815
I3037
sS'denied'
p1816
I1974
sS'beating'
p1817
I2676
sS'participation'
p1818
I4529
sS'marketing'
p1819
I1588
sS'pose'
p1820
I5579
sS'graduates'
p1821
I5182
sS'restructuring'
p1822
I589
sS'plc'
p1823
I3081
sS'architectural'
p1824
I2840
sS'plo'
p1825
I3558
sS'post'
p1826
I2052
sS'properties'
p1827
I623
sS'gartner'
p1828
I4882
sS'newspapers'
p1829
I2023
sS'months'
p1830
I879
sS'banker'
p1831
I1589
sS'horizon'
p1832
I4931
sS'considerations'
p1833
I4808
sS'pays'
p1834
I4596
sS'bound'
p1835
I1855
sS'capped'
p1836
I2350
sS'zero-coupon'
p1837
I4275
sS'legislation'
p1838
I3185
sS'fight'
p1839
I3424
sS'conservation'
p1840
I5223
sS'way'
p1841
I1510
sS'accords'
p1842
I5105
sS'was'
p1843
I2
sS'war'
p1844
I2858
sS'lowest'
p1845
I2278
sS'sagging'
p1846
I4517
sS'becoming'
p1847
I5019
sS'elderly'
p1848
I3990
sS'true'
p1849
I1818
sS'responding'
p1850
I4806
sS'high-quality'
p1851
I2361
sS'maximum'
p1852
I4262
sS'unusually'
p1853
I227
sS'enthusiastic'
p1854
I5489
sS'private-sector'
p1855
I1252
sS'medication'
p1856
I2772
sS'moore'
p1857
I5999
sS'bankamerica'
p1858
I102
sS'frederick'
p1859
I4606
sS'evidence'
p1860
I2126
sS'expertise'
p1861
I5582
sS'promised'
p1862
I2154
sS'program-trading'
p1863
I378
sS'weakened'
p1864
I3617
sS'stake'
p1865
I1258
sS'topped'
p1866
I3442
sS'reality'
p1867
I4311
sS'negotiators'
p1868
I1723
sS'interested'
p1869
I1859
sS'holding'
p1870
I2250
sS'test'
p1871
I48
sS'unwilling'
p1872
I4686
sS'brothers'
p1873
I136
sS'welcome'
p1874
I6023
sS'convincing'
p1875
I5697
sS'acted'
p1876
I3801
sS'overbuilt'
p1877
I5859
sS'mullins'
p1878
I4514
sS'regime'
p1879
I5024
sS'together'
p1880
I707
sS'loyal'
p1881
I4662
sS'reception'
p1882
I3482
sS'n.j.'
p1883
I1071
sS'precedent'
p1884
I3434
sS'basically'
p1885
I3775
sS'concept'
p1886
I5002
sS'switched'
p1887
I4644
sS'global'
p1888
I5607
sS'big-time'
p1889
I5815
sS'battle'
p1890
I3591
sS'devoted'
p1891
I5018
sS'certainly'
p1892
I1294
sS'hurry'
p1893
I4597
sS'permanently'
p1894
I4533
sS'southwest'
p1895
I1106
sS'division'
p1896
I1610
sS'charles'
p1897
I556
sS'seemingly'
p1898
I5625
sS'liability'
p1899
I2946
sS'vegas'
p1900
I1061
sS'microprocessors'
p1901
I3950
sS'10-year'
p1902
I4973
sS'trouble'
p1903
I862
sS'aggressively'
p1904
I3189
sS'presented'
p1905
I3572
sS'turns'
p1906
I2767
sS'fragile'
p1907
I4930
sS'guy'
p1908
I2990
sS'plummet'
p1909
I4902
sS'regret'
p1910
I4764
sS'cost'
p1911
I1303
sS'cargo'
p1912
I3496
sS'appear'
p1913
I3106
sS'assistance'
p1914
I3221
sS'shares'
p1915
I187
sS'uniform'
p1916
I5167
sS'appeal'
p1917
I2210
sS'satisfy'
p1918
I2669
sS'supporting'
p1919
I2274
sS'explosion'
p1920
I1538
sS'rubicam'
p1921
I2423
sS'appears'
p1922
I2621
sS'change'
p1923
I1550
sS'burt'
p1924
I3739
sS'trial'
p1925
I2505
sS'franklin'
p1926
I4325
sS'usually'
p1927
I1362
sS'montreal'
p1928
I3882
sS'retired'
p1929
I2466
sS'extra'
p1930
I1718
sS'lending'
p1931
I4577
sS'marked'
p1932
I2694
sS'markey'
p1933
I5997
sS'fbi'
p1934
I3514
sS'rarely'
p1935
I3076
sS'market'
p1936
I120
sS'jan'
p1937
I1063
sS'prove'
p1938
I2971
sS'live'
p1939
I2855
sS'commissioner'
p1940
I5390
sS'cie.'
p1941
I4315
sS'towers'
p1942
I2837
sS'minimum-wage'
p1943
I5453
sS'organizations'
p1944
I4884
sS'ibm'
p1945
I301
sS'car'
p1946
I2611
sS'cat'
p1947
I5892
sS'hardest'
p1948
I3051
sS'can'
p1949
I645
sS'trans'
p1950
I3243
sS'pretoria'
p1951
I3490
sS'fulton'
p1952
I4557
sS'heart'
p1953
I2784
sS'dedicated'
p1954
I5355
sS'rebuffed'
p1955
I2379
sS'p&g'
p1956
I1795
sS'expanding'
p1957
I1813
sS'subsidies'
p1958
I1730
sS'topic'
p1959
I1519
sS'heard'
p1960
I4184
sS'fortunes'
p1961
I1551
sS'exclude'
p1962
I4693
sS'clothing'
p1963
I2894
sS'occur'
p1964
I2962
sS'productive'
p1965
I5289
sS'discussion'
p1966
I1877
sS'means'
p1967
I2645
sS'write'
p1968
I5647
sS'dominance'
p1969
I5937
sS'economy'
p1970
I1078
sS'product'
p1971
I1472
sS'dive'
p1972
I201
sS'southern'
p1973
I905
sS'produce'
p1974
I1769
sS'heroes'
p1975
I1418
sS'lifting'
p1976
I1581
sS'goal'
p1977
I3363
sS'eurodollars'
p1978
I4572
sS'remember'
p1979
I5657
sS'whenever'
p1980
I4166
sS'futures'
p1981
I58
sS'accelerated'
p1982
I185
sS'kurt'
p1983
I4633
sS'typical'
p1984
I2057
sS'no.'
p1985
I4850
sS'serving'
p1986
I2229
sS'indeed'
p1987
I1100
sS'displayed'
p1988
I6014
sS'consulting'
p1989
I2369
sS'ended'
p1990
I777
sS'statistical'
p1991
I1770
sS'cold'
p1992
I2338
sS'still'
p1993
I433
sS'restructurings'
p1994
I5653
sS'reacting'
p1995
I213
sS'forms'
p1996
I3267
sS'halt'
p1997
I263
sS'barron'
p1998
I2553
sS'sweetened'
p1999
I5828
sS'introduce'
p2000
I1557
sS'wealthy'
p2001
I3542
sS'not'
p2002
I122
sS'now'
p2003
I324
sS'provision'
p2004
I1947
sS'hall'
p2005
I4331
sS'nor'
p2006
I2387
sS'enacted'
p2007
I4220
sS'james'
p2008
I133
sS'drop'
p2009
I333
sS'entirely'
p2010
I1814
sS'last'
p2011
I67
sS'significantly'
p2012
I1630
sS'challenged'
p2013
I3258
sS'ed'
p2014
I3304
sS'ec'
p2015
I1706
sS'challenges'
p2016
I4888
sS'fires'
p2017
I5273
sS'year'
p2018
I180
sS'happen'
p2019
I3349
sS'avoided'
p2020
I2924
sS'shown'
p2021
I2294
sS'accomplish'
p2022
I4891
sS'opened'
p2023
I688
sS'bullish'
p2024
I989
sS'space'
p2025
I1846
sS'furthermore'
p2026
I5093
sS'increase'
p2027
I1185
sS'rational'
p2028
I4896
sS'showroom'
p2029
I4773
sS'receiving'
p2030
I1039
sS'viable'
p2031
I5886
sS'shows'
p2032
I3291
sS'kan.'
p2033
I3212
sS'e.'
p2034
I4298
sS'defenses'
p2035
I2506
sS'cars'
p2036
I2661
sS'diagnostic'
p2037
I5218
sS'unwanted'
p2038
I2876
sS'rebel'
p2039
I3555
sS'carl'
p2040
I2375
sS'obligation'
p2041
I2303
sS'marine'
p2042
I5113
sS'inevitable'
p2043
I3886
sS'card'
p2044
I5471
sS'care'
p2045
I3936
sS'british'
p2046
I1245
sS'honest'
p2047
I4140
sS'promotion'
p2048
I5778
sS'flying'
p2049
I411
sS'striking'
p2050
I1174
sS'directly'
p2051
I4562
sS'impossible'
p2052
I1121
sS'ring'
p2053
I3432
sS'tomorrow'
p2054
I3524
sS'size'
p2055
I1627
sS'sheep'
p2056
I3761
sS'sheer'
p2057
I1580
sS'sheet'
p2058
I1372
sS'caught'
p2059
I1806
sS'reinvestment'
p2060
I3417
sS'households'
p2061
I3372
sS'dillon'
p2062
I3234
sS'free-lance'
p2063
I5152
sS'friend'
p2064
I2827
sS'mostly'
p2065
I1127
sS'that'
p2066
I156
sS'pittsburgh'
p2067
I5387
sS'brains'
p2068
I3951
sS'eliminated'
p2069
I5163
sS'flowers'
p2070
I4086
sS'than'
p2071
I510
sS'professionals'
p2072
I313
sS'television'
p2073
I1633
sS'underwritten'
p2074
I4984
sS'transferred'
p2075
I5748
sS'optimism'
p2076
I4738
sS'irvine'
p2077
I5552
sS'troublesome'
p2078
I4093
sS'contentious'
p2079
I3122
sS'investors'
p2080
I319
sS'remained'
p2081
I3057
sS'craig'
p2082
I4603
sS'correction'
p2083
I4377
sS'premier'
p2084
I3498
sS'13th'
p2085
I1048
sS'investment-grade'
p2086
I770
sS'distorted'
p2087
I4426
sS'breakfast'
p2088
I1896
sS'recover'
p2089
I2952
sS'windsor'
p2090
I846
sS'form'
p2091
I359
sS'veteran'
p2092
I4095
sS'manufacturers'
p2093
I3624
sS'equipment'
p2094
I2995
sS'mr.'
p2095
I410
sS'objective'
p2096
I1899
sS'swelled'
p2097
I1478
sS'begin'
p2098
I836
sS'price'
p2099
I369
sS'rationale'
p2100
I5185
sS'america'
p2101
I452
sS'forever'
p2102
I5057
sS'attempting'
p2103
I756
sS'steady'
p2104
I3058
sS'clearing'
p2105
I3441
sS'professional'
p2106
I508
sS'typically'
p2107
I1357
sS'filing'
p2108
I2468
sS'diaper'
p2109
I5056
sS'jewelers'
p2110
I747
sS'german'
p2111
I3711
sS'discovered'
p2112
I1323
sS'maine'
p2113
I4216
sS'fifth'
p2114
I1132
sS'ground'
p2115
I500
sS'upgrade'
p2116
I4832
sS'dapuzzo'
p2117
I4507
sS'title'
p2118
I3755
sS'jolt'
p2119
I5593
sS'only'
p2120
I196
sS'samuel'
p2121
I4424
sS'<eos>'
p2122
I6
sS'builds'
p2123
I5993
sS'husband'
p2124
I2930
sS'salomon'
p2125
I1848
sS'concert'
p2126
I5566
sS'attached'
p2127
I4866
sS'elected'
p2128
I2462
sS'sport'
p2129
I4053
sS'europeans'
p2130
I3717
sS'between'
p2131
I344
sS'import'
p2132
I4571
sS'justified'
p2133
I4488
sS'notice'
p2134
I2668
sS'blame'
p2135
I3782
sS'article'
p2136
I554
sS'buy-back'
p2137
I2392
sS'comes'
p2138
I3068
sS'nearby'
p2139
I5251
sS'jeans'
p2140
I4065
sS'learning'
p2141
I5294
sS'moreover'
p2142
I3127
sS'oliver'
p2143
I5551
sS'rebuild'
p2144
I4535
sS'informed'
p2145
I2705
sS'disclosed'
p2146
I580
sS'wonderful'
p2147
I1417
sS'shortages'
p2148
I3494
sS'observers'
p2149
I3915
sS'external'
p2150
I6044
sS'stems'
p2151
I1791
sS'lipper'
p2152
I967
sS'developing'
p2153
I1657
sS'these'
p2154
I287
sS'editorial'
p2155
I4405
sS'zenith'
p2156
I4783
sS'metric'
p2157
I775
sS'health-care'
p2158
I3089
sS'canceled'
p2159
I2240
sS'worry'
p2160
I2993
sS'develop'
p2161
I3339
sS'media'
p2162
I1628
sS'figuring'
p2163
I6043
sS'inquiry'
p2164
I5906
sS'angered'
p2165
I2597
sS'finish'
p2166
I1126
sS'respected'
p2167
I4348
sS'racketeering'
p2168
I2429
sS'tradition'
p2169
I4101
sS'complained'
p2170
I5883
sS'theater'
p2171
I3758
sS'charges'
p2172
I2430
sS'constitutional'
p2173
I4420
sS'agreeing'
p2174
I3745
sS'severe'
p2175
I4075
sS'laboratories'
p2176
I3085
sS'charged'
p2177
I2400
sS'knowledgeable'
p2178
I5306
sS'valuable'
p2179
I2111
sS'anticipates'
p2180
I1734
sS'touch'
p2181
I4055
sS'speed'
p2182
I4221
sS'death'
p2183
I2606
sS'thinking'
p2184
I1529
sS'improvement'
p2185
I1310
sS'treatment'
p2186
I5026
sS'republic'
p2187
I5725
sS'struck'
p2188
I1164
sS'disproportionate'
p2189
I2227
sS'real'
p2190
I701
sS'conferees'
p2191
I5731
sS'nielsen'
p2192
I4871
sS'spectacular'
p2193
I2765
sS'rules'
p2194
I2119
sS'pse'
p2195
I1304
sS'early'
p2196
I164
sS'listening'
p2197
I5145
sS'using'
p2198
I2616
sS'execution'
p2199
I4524
sS'lady'
p2200
I1961
sS'ruled'
p2201
I2491
sS'tokyo-based'
p2202
I5388
sS'heightened'
p2203
I2582
sS'pounds'
p2204
I4786
sS'suppliers'
p2205
I1253
sS'annually'
p2206
I1676
sS'benefit'
p2207
I1743
sS'output'
p2208
I3013
sS'downward'
p2209
I98
sS'endorsed'
p2210
I2256
sS'apartments'
p2211
I5296
sS'mcgraw-hill'
p2212
I4989
sS'privatization'
p2213
I1254
sS'intend'
p2214
I3403
sS'kaiser'
p2215
I4726
sS'recorded'
p2216
I4837
sS'conservative'
p2217
I1363
sS'dealership'
p2218
I4772
sS'deficit'
p2219
I1894
sS'recorder'
p2220
I5493
sS'wheat'
p2221
I2265
sS'business'
p2222
I296
sS'sixth'
p2223
I2909
sS'chefs'
p2224
I5188
sS'uneasy'
p2225
I4366
sS'hectic'
p2226
I5641
sS'francis'
p2227
I4390
sS'throw'
p2228
I5264
sS'comparison'
p2229
I1415
sS'central'
p2230
I147
sS'boesky'
p2231
I2215
sS'greatly'
p2232
I2064
sS'testimony'
p2233
I4476
sS'invested'
p2234
I4363
sS'backup'
p2235
I4879
sS'heavy'
p2236
I88
sS'outlook'
p2237
I769
sS'protests'
p2238
I3547
sS'involvement'
p2239
I3276
sS'operator'
p2240
I1259
sS'shrinking'
p2241
I3863
sS'your'
p2242
I551
sS'prepare'
p2243
I2074
sS'area'
p2244
I2577
sS'removing'
p2245
I1944
sS'hertz'
p2246
I4858
sS'start'
p2247
I1465
sS'low'
p2248
I2322
sS'lot'
p2249
I495
sS'billion'
p2250
I218
sS'rjr'
p2251
I1608
sS'delayed'
p2252
I1089
sS'two-thirds'
p2253
I4009
sS'trying'
p2254
I443
sS'hire'
p2255
I3343
sS'fraud'
p2256
I3826
sS'circulation'
p2257
I2545
sS'stanford'
p2258
I5277
sS'default'
p2259
I2302
sS'louisiana'
p2260
I1324
sS'rhone-poulenc'
p2261
I2726
sS'moved'
p2262
I940
sS'sales'
p2263
I592
sS'moves'
p2264
I1447
sS'hospitals'
p2265
I5195
sS'credibility'
p2266
I5685
sS'gambling'
p2267
I5880
sS'you'
p2268
I570
sS'forcing'
p2269
I4471
sS'poor'
p2270
I91
sS'carpenter'
p2271
I5726
sS'computerized'
p2272
I2006
sS'peak'
p2273
I2342
sS'coverage'
p2274
I3326
sS'pool'
p2275
I4034
sS'hambrecht'
p2276
I4512
sS'building'
p2277
I1232
sS'repay'
p2278
I594
sS'restored'
p2279
I5666
sS'overseas'
p2280
I2036
sS'blue-chip'
p2281
I293
sS'since'
p2282
I204
sS'month'
p2283
I1107
sS'unrest'
p2284
I6035
sS'chain'
p2285
I749
sS'wyoming'
p2286
I3982
sS'pricing'
p2287
I1412
sS'1930s'
p2288
I5343
sS'safety'
p2289
I1556
sS'divisions'
p2290
I2170
sS'very'
p2291
I997
sS'chiron'
p2292
I2723
sS'mph'
p2293
I3582
sS'decide'
p2294
I3841
sS'louis'
p2295
I5361
sS'bristol-myers'
p2296
I887
sS'cost-cutting'
p2297
I2579
sS'streets'
p2298
I2864
sS'greenspan'
p2299
I5302
sS'consumers'
p2300
I1826
sS'investing'
p2301
I4594
sS'labeled'
p2302
I3680
sS'witnesses'
p2303
I4412
sS'certificates'
p2304
I3704
sS'learned'
p2305
I1001
sS'multinational'
p2306
I5503
sS'turmoil'
p2307
I1049
sS'loose'
p2308
I5010
sS'answers'
p2309
I5254
sS'tracks'
p2310
I4913
sS'selective'
p2311
I5623
sS'gramm-rudman'
p2312
I4227
sS'excess'
p2313
I1467
sS'spielvogel'
p2314
I2376
sS'strong'
p2315
I802
sS'ahead'
p2316
I2320
sS'inspired'
p2317
I1389
sS'losses'
p2318
I299
sS'exceptionally'
p2319
I4944
sS'fired'
p2320
I3595
sS'amount'
p2321
I1985
sS'advertising'
p2322
I1612
sS'family'
p2323
I2897
sS'mediator'
p2324
I1140
sS'requiring'
p2325
I3659
sS'ask'
p2326
I4655
sS'aimed'
p2327
I2332
sS'toys'
p2328
I1437
sS'conventional'
p2329
I1243
sS'flaws'
p2330
I5735
sS'takes'
p2331
I1828
sS'one-day'
p2332
I4682
sS'contains'
p2333
I4269
sS'almost'
p2334
I1065
sS'taken'
p2335
I1151
sS'lowering'
p2336
I1553
sS'erode'
p2337
I4534
sS'fast-food'
p2338
I4848
sS'jr.'
p2339
I2482
sS'surprisingly'
p2340
I1929
sS'broke'
p2341
I2156
sS'underwriter'
p2342
I5553
sS'lazard'
p2343
I5807
sS'factories'
p2344
I2612
sS'producing'
p2345
I1302
sS'hardware'
p2346
I3955
sS'mixte'
p2347
I5562
sS'veterans'
p2348
I4720
sS'coalition'
p2349
I5667
sS'nine'
p2350
I582
sS'budgets'
p2351
I3876
sS'history'
p2352
I1182
sS'adviser'
p2353
I5385
sS'pushed'
p2354
I1203
sS'phrase'
p2355
I3015
sS'lacks'
p2356
I5199
sS'f.'
p2357
I2214
sS'firmly'
p2358
I1941
sS'processors'
p2359
I1762
sS'stayed'
p2360
I501
sS'hampered'
p2361
I2519
sS'reject'
p2362
I3513
sS'idaho'
p2363
I2936
sS'tried'
p2364
I1832
sS'tries'
p2365
I4167
sS'a'
p2366
I145
sS'overnight'
p2367
I4556
sS'anytime'
p2368
I4824
sS'renewing'
p2369
I3703
sS'telephones'
p2370
I1741
sS'deterioration'
p2371
I5922
sS'banks'
p2372
I78
sS'dream'
p2373
I915
sS'help'
p2374
I948
sS'treasurys'
p2375
I4982
sS'soon'
p2376
I238
sS'held'
p2377
I833
sS'committee'
p2378
I669
sS'committed'
p2379
I1939
sS'hell'
p2380
I2820
sS'fined'
p2381
I6000
sS'reluctance'
p2382
I4747
sS'actually'
p2383
I1148
sS'absence'
p2384
I3781
sS'systems'
p2385
I2147
sS'evening'
p2386
I3371
sS'food'
p2387
I1615
sS'anticipated'
p2388
I2086
sS'foot'
p2389
I3072
sS'well-known'
p2390
I4337
sS'fully'
p2391
I2128
sS'capability'
p2392
I3867
sS'stopped'
p2393
I112
sS'apartheid'
p2394
I6048
sS'referred'
p2395
I4435
sS'barrels'
p2396
I3866
sS'neil'
p2397
I2766
sS'punitive'
p2398
I2233
sS'quantum'
p2399
I1382
sS'beyond'
p2400
I1866
sS'event'
p2401
I3643
sS'robert'
p2402
I758
sS'surrounded'
p2403
I5287
sS'testify'
p2404
I4469
sS'douglas'
p2405
I5048
sS'trusts'
p2406
I4651
sS'sustain'
p2407
I3039
sS'issue'
p2408
I2186
sS'houses'
p2409
I4627
sS'reason'
p2410
I852
sS'base'
p2411
I2546
sS'put'
p2412
I706
sS'earliest'
p2413
I1162
sS'curtailed'
p2414
I5000
sS'launch'
p2415
I741
sS'broad-based'
p2416
I3640
sS'utilization'
p2417
I4991
sS'terrible'
p2418
I5613
sS'american'
p2419
I897
sS'expecting'
p2420
I2804
sS'businessmen'
p2421
I3543
sS'leading'
p2422
I2419
sS'scheduled'
p2423
I1275
sS'interviews'
p2424
I3373
sS'sacrifice'
p2425
I4256
sS'reflected'
p2426
I1915
sS'talked'
p2427
I5303
sS'miss'
p2428
I1099
sS'st.'
p2429
I2254
sS'station'
p2430
I3797
sS'expand'
p2431
I1494
sS'scheme'
p2432
I2920
sS'shifted'
p2433
I3875
sS'selling'
p2434
I53
sS'passed'
p2435
I1409
sS'taxable'
p2436
I4271
sS'financing'
p2437
I265
sS'hundred'
p2438
I558
sS'performers'
p2439
I3909
sS'state-owned'
p2440
I2725
sS'anticipate'
p2441
I712
sS'toward'
p2442
I1690
sS'procedural'
p2443
I4234
sS'sentenced'
p2444
I3485
sS'charlotte'
p2445
I3187
sS'alongside'
p2446
I3788
sS'substantial'
p2447
I2275
sS'concentration'
p2448
I3848
sS'vulnerable'
p2449
I511
sS'ratings'
p2450
I3356
sS'speculative'
p2451
I4324
sS'scotland'
p2452
I566
sS'officers'
p2453
I5577
sS'aired'
p2454
I5981
sS'experienced'
p2455
I3329
sS'quote'
p2456
I4385
sS'quota'
p2457
I1663
sS'macy'
p2458
I2528
sS'freddie'
p2459
I4581
sS'hired'
p2460
I731
sS'position'
p2461
I738
sS'mobile'
p2462
I4297
sS'performances'
p2463
I2794
sS'clear'
p2464
I1906
sS'clean'
p2465
I1830
sS'latest'
p2466
I866
sS'phenomenon'
p2467
I4618
sS'stunned'
p2468
I3899
sS'completion'
p2469
I1108
sS'northern'
p2470
I564
sS'justice'
p2471
I3090
sS'flights'
p2472
I1058
sS'pretty'
p2473
I1603
sS'meanwhile'
p2474
I389
sS'trees'
p2475
I5180
sS'famous'
p2476
I3168
sS'feels'
p2477
I826
sS'grew'
p2478
I734
sS'competing'
p2479
I2171
sS'during'
p2480
I390
sS'intensify'
p2481
I3885
sS'oppenheimer'
p2482
I1484
sS'interim'
p2483
I5673
sS'recommendations'
p2484
I5402
sS'switzerland'
p2485
I2721
sS'x'
p2486
I1567
sS'l.p.'
p2487
I5615
sS'maurice'
p2488
I2365
sS'culture'
p2489
I3727
sS'bethlehem'
p2490
I4847
sS'plummeted'
p2491
I3628
sS'close'
p2492
I504
sS'pictures'
p2493
I5488
sS'won'
p2494
I1805
sS'probably'
p2495
I1094
sS'conditions'
p2496
I2733
sS'missing'
p2497
I4241
sS'poorer'
p2498
I5621
sS'abruptly'
p2499
I1466
sS'both'
p2500
I55
sS'southmark'
p2501
I2467
sS'second-largest'
p2502
I1590
sS'minorities'
p2503
I4028
sS'sensitive'
p2504
I3202
sS'forgotten'
p2505
I6041
sS'superfund'
p2506
I2943
sS'jeff'
p2507
I4635
sS'cuts'
p2508
I4225
sS'whatever'
p2509
I2327
sS'galileo'
p2510
I3529
sS'likes'
p2511
I864
sS'described'
p2512
I1508
sS'maintenance'
p2513
I607
sS'territory'
p2514
I5132
sS'empty'
p2515
I5533
sS'walter'
p2516
I5976
sS'box'
p2517
I5980
sS'generating'
p2518
I1244
sS'lived'
p2519
I2835
sS'partly'
p2520
I4757
sS'crack'
p2521
I2868
sS'N'
p2522
I24
sS'anthony'
p2523
I2438
sS'lives'
p2524
I5009
sS'bidding'
p2525
I2724
sS'second-quarter'
p2526
I1732
sS'pact'
p2527
I1163
sS'look'
p2528
I465
sS'socialist'
p2529
I4839
sS'governor'
p2530
I5411
sS'pace'
p2531
I920
sS'while'
p2532
I8
sS'mainframe'
p2533
I4876
sS'ought'
p2534
I4179
sS'ferranti'
p2535
I3822
sS'fleet'
p2536
I604
sS'mitchell'
p2537
I1474
sS'guide'
p2538
I3263
sS'costly'
p2539
I5490
sS'contel'
p2540
I4545
sS'voters'
p2541
I4111
sS'ready'
p2542
I542
sS'fannie'
p2543
I4588
sS'shaw'
p2544
I3315
sS'anymore'
p2545
I2453
sS'grant'
p2546
I3466
sS'grand'
p2547
I4041
sS'conflict'
p2548
I4136
sS'indianapolis'
p2549
I2777
sS'lawyers'
p2550
I3163
sS'uses'
p2551
I3938
sS'user'
p2552
I5475
sS'older'
p2553
I2755
sS'12-month'
p2554
I1740
sS'poland'
p2555
I6031
sS'increases'
p2556
I1482
sS'obviously'
p2557
I532
sS'lin'
p2558
I4375
sS'grossly'
p2559
I5885
sS'ambassador'
p2560
I3738
sS'judgments'
p2561
I3430
sS'quarters'
p2562
I2536
sS'taiwan'
p2563
I1680
sS'retirement'
p2564
I3203
sS'$'
p2565
I217
sS'over-the-counter'
p2566
I2813
sS'informal'
p2567
I1683
sS'guaranteed'
p2568
I3253
sS'exercising'
p2569
I4421
sS'stock-market'
p2570
I2367
sS'guarantees'
p2571
I2715
sS'remaining'
p2572
I578
sS'march'
p2573
I1688
sS'stein'
p2574
I5352
sS'evaluate'
p2575
I5075
sS'showing'
p2576
I4309
sS'game'
p2577
I3728
sS'wings'
p2578
I6045
sS'outright'
p2579
I5722
sS'success'
p2580
I1792
sS'signal'
p2581
I3823
sS'toyota'
p2582
I5099
sS'popular'
p2583
I3707
sS'softness'
p2584
I2552
sS'some'
p2585
I38
sS'trends'
p2586
I5865
sS'economic'
p2587
I1867
sS'fanfare'
p2588
I5741
sS'delivered'
p2589
I1055
sS'exceeding'
p2590
I2967
sS'claimed'
p2591
I1441
sS'run'
p2592
I2540
sS'processing'
p2593
I1377
sS'stem'
p2594
I961
sS'step'
p2595
I80
sS'cable-tv'
p2596
I3303
sS'nerves'
p2597
I4332
sS'abroad'
p2598
I2749
sS'faith'
p2599
I3031
sS'bureaus'
p2600
I3359
sS'soft'
p2601
I1938
sS'congressman'
p2602
I5656
sS'block'
p2603
I1456
sS'seeing'
p2604
I2044
sS'visit'
p2605
I1871
sS'within'
p2606
I1540
sS'nonsense'
p2607
I2976
sS'pentagon'
p2608
I2164
sS'statistics'
p2609
I779
sS'computer'
p2610
I308
sS'beers'
p2611
I5450
sS'placing'
p2612
I5935
sS'besieged'
p2613
I4626
sS'heritage'
p2614
I3211
sS'manufacture'
p2615
I3820
sS'himself'
p2616
I4175
sS'registered'
p2617
I3685
sS'specialty'
p2618
I4950
sS'reiterated'
p2619
I1942
sS'films'
p2620
I5440
sS'larry'
p2621
I3368
sS'authority'
p2622
I3515
sS'newer'
p2623
I2743
sS'russian'
p2624
I5482
sS'injection'
p2625
I5637
sS'fda'
p2626
I4641
sS'circuits'
p2627
I4827
sS'similar'
p2628
I956
sS'ordered'
p2629
I2296
sS'adults'
p2630
I4147
sS'metals'
p2631
I2944
sS'rupert'
p2632
I3793
sS'amounts'
p2633
I2060
sS'fears'
p2634
I4536
sS'application'
p2635
I3414
sS'politicians'
p2636
I4665
sS'electrical'
p2637
I1250
sS'department'
p2638
I2150
sS'manhattan'
p2639
I2932
sS'draw'
p2640
I1470
sS'reportedly'
p2641
I2149
sS're-election'
p2642
I5888
sS'kansas'
p2643
I2313
sS'william'
p2644
I2071
sS'structure'
p2645
I5079
sS'e'
p2646
I5334
sS'practically'
p2647
I5585
sS'required'
p2648
I1347
sS'requires'
p2649
I3418
sS'avoid'
p2650
I925
sS'katz'
p2651
I1625
sS'co-author'
p2652
I5300
sS'fixed-rate'
p2653
I4591
sS'oct.'
p2654
I198
sS'proposition'
p2655
I1925
sS'go'
p2656
I1256
sS'gm'
p2657
I2605
sS'compact'
p2658
I1817
sS'suits'
p2659
I3427
sS'excluded'
p2660
I4013
sS'friendly'
p2661
I4658
sS'portfolios'
p2662
I3682
sS'miners'
p2663
I5448
sS'wave'
p2664
I805
sS'wash.'
p2665
I1130
sS'trough'
p2666
I5856
sS'cellular'
p2667
I4543
sS'telling'
p2668
I979
sS'g.'
p2669
I2461
sS'stiff'
p2670
I4396
sS'positions'
p2671
I745
sS'michael'
p2672
I848
sS'verdict'
p2673
I4433
sS'barbara'
p2674
I2212
sS'enforce'
p2675
I3402
sS'guber'
p2676
I5975
sS'carter'
p2677
I5298
sS'arbitragers'
p2678
I225
sS'jump'
p2679
I3066
sS's.p'
p2680
I2297
sS'notwithstanding'
p2681
I5834
sS'plays'
p2682
I4149
sS'marketed'
p2683
I4822
sS'cell'
p2684
I5684
sS'volatile'
p2685
I4998
sS'nicholas'
p2686
I4180
sS'marketer'
p2687
I1778
sS'focuses'
p2688
I5404
sS'filings'
p2689
I5060
sS'stance'
p2690
I1968
sS'commercial'
p2691
I638
sS'following'
p2692
I2641
sS'focused'
p2693
I1861
sS'convert'
p2694
I2202
sS'products'
p2695
I899
sS'oversees'
p2696
I2693
sS'gene'
p2697
I4821
sS'clark'
p2698
I4485
sS'danger'
p2699
I4360
sS'win'
p2700
I2431
sS'clout'
p2701
I5995
sS'manipulate'
p2702
I2305
sS'strapped'
p2703
I5589
sS'remains'
p2704
I2090
sS'child-care'
p2705
I4237
sS'hudson'
p2706
I5209
sS'lobbying'
p2707
I5984
sS'subsidized'
p2708
I1692
sS'vehicle'
p2709
I2617
sS'historically'
p2710
I2807
sS'belgian'
p2711
I3733
sS'payout'
p2712
I1509
sS'formally'
p2713
I5889
sS'started'
p2714
I426
sS'becomes'
p2715
I2032
sS'benchmark'
p2716
I1452
sS'missile'
p2717
I3813
sS'appointed'
p2718
I5215
sS'ride'
p2719
I1385
sS'averaged'
p2720
I964
sS'recession'
p2721
I3016
sS'meet'
p2722
I1559
sS'drops'
p2723
I907
sS'averages'
p2724
I5371
sS'control'
p2725
I3590
sS'beijing'
p2726
I5918
sS'unanticipated'
p2727
I4923
sS'links'
p2728
I362
sS'escaped'
p2729
I3139
sS'pulling'
p2730
I4952
sS'sought'
p2731
I4885
sS'hit'
p2732
I341
sS'stemmed'
p2733
I4505
sS'chevrolet'
p2734
I2659
sS'arrangement'
p2735
I5763
sS'located'
p2736
I2235
sS'inflows'
p2737
I856
sS'farm'
p2738
I4280
sS'ronald'
p2739
I3872
sS'fixed-income'
p2740
I5620
sS'advocates'
p2741
I5160
sS'agenda'
p2742
I4664
sS'quotations'
p2743
I4575
sS'including'
p2744
I314
sS'newsweek'
p2745
I2581
sS'exclusion'
p2746
I4272
sS'backers'
p2747
I5172
sS'auto'
p2748
I1205
sS'hands'
p2749
I4132
sS'front'
p2750
I4737
sS'university'
p2751
I2709
sS'slide'
p2752
I992
sS'mode'
p2753
I943
sS'shaking'
p2754
I246
sS'promises'
p2755
I5574
sS'upward'
p2756
I2389
sS'globe'
p2757
I2558
sS'measure'
p2758
I3216
sS'margins'
p2759
I2069
sS'special'
p2760
I1507
sS'offsetting'
p2761
I4623
sS'entertainment'
p2762
I4715
sS'critics'
p2763
I3700
sS'activist'
p2764
I6022
sS'libor'
p2765
I4574
sS'thriving'
p2766
I3074
sS'calif'
p2767
I1342
sS'withdrawal'
p2768
I808
sS'attending'
p2769
I4743
sS'completely'
p2770
I1883
sS'conservatives'
p2771
I5178
sS'resumed'
p2772
I115
sS'hostile'
p2773
I2362
sS'diminished'
p2774
I2185
sS'keep'
p2775
I2285
sS'acres'
p2776
I2281
sS'austin'
p2777
I4723
sS'designed'
p2778
I3949
sS'prospective'
p2779
I5704
sS'succeeds'
p2780
I5111
sS'powerful'
p2781
I1802
sS'improving'
p2782
I3281
sS'quality'
p2783
I771
sS'management'
p2784
I644
sS'bears'
p2785
I4047
sS'revealed'
p2786
I5734
sS'adopted'
p2787
I1772
sS'attack'
p2788
I1803
sS'intelligence'
p2789
I2141
sS'banque'
p2790
I5542
sS'final'
p2791
I29
sS'exactly'
p2792
I1967
sS'chemicals'
p2793
I1586
sS'herself'
p2794
I2849
sS'bed'
p2795
I2878
sS'soviets'
p2796
I2113
sS'providing'
p2797
I1376
sS'bet'
p2798
I1468
sS'exhibit'
p2799
I5495
sS'unchanged'
p2800
I2288
sS'goldberg'
p2801
I4077
sS'need'
p2802
I1878
sS'assurances'
p2803
I5058
sS'pursued'
p2804
I4456
sS'luxury-car'
p2805
I4851
sS'purchasing'
p2806
I1649
sS'instance'
p2807
I843
sS'issuing'
p2808
I2959
sS'truck'
p2809
I5085
sS'fuels'
p2810
I2359
sS'expires'
p2811
I5375
sS'connected'
p2812
I5175
sS'expired'
p2813
I1199
sS'upset'
p2814
I990
sS'proceedings'
p2815
I2435
sS'construction'
p2816
I5862
sS'businessman'
p2817
I728
sS'affair'
p2818
I3853
sS'sent'
p2819
I1173
sS'anyway'
p2820
I5956
sS'shield'
p2821
I4484
sS'partners'
p2822
I1322
sS'based'
p2823
I651
sS'earned'
p2824
I2503
sS'hopeful'
p2825
I5041
sS'employer'
p2826
I4273
sS'bases'
p2827
I3264
sS'inherited'
p2828
I3173
sS'employee'
p2829
I1644
sS'employed'
p2830
I4646
sS'achieve'
p2831
I2790
sS'michigan'
p2832
I3967
sS'overall'
p2833
I351
sS'b-2'
p2834
I4321
sS'joint'
p2835
I1336
sS'joins'
p2836
I2394
sS'consecutive'
p2837
I2746
sS'buyer'
p2838
I2005
sS'years'
p2839
I559
sS'procedures'
p2840
I2130
sS'endless'
p2841
I5626
sS'gray'
p2842
I6018
sS'prebon'
p2843
I4558
sS'places'
p2844
I4057
sS'trucks'
p2845
I5095
sS'shy'
p2846
I4779
sS'she'
p2847
I976
sS'contain'
p2848
I2714
sS'proponents'
p2849
I5730
sS'widow'
p2850
I4151
sS'shake'
p2851
I4527
sS'freeze'
p2852
I4289
sS'reinforce'
p2853
I5305
sS'officials'
p2854
I1858
sS'desperate'
p2855
I2922
sS'operated'
p2856
I2935
sS'tend'
p2857
I1827
sS'written'
p2858
I2958
sS'neither'
p2859
I2712
sS'prevailing'
p2860
I5759
sS'sabotage'
p2861
I6042
sS'comparable'
p2862
I4244
sS'attention'
p2863
I668
sS'importance'
p2864
I1879
sS'interfere'
p2865
I2862
sS'key'
p2866
I3049
sS'approval'
p2867
I2260
sS'problem'
p2868
I1109
sS'limits'
p2869
I5406
sS'career'
p2870
I1571
sS'minds'
p2871
I3342
sS'admit'
p2872
I4064
sS'a.m.'
p2873
I5328
sS'jersey'
p2874
I3657
sS'budgetary'
p2875
I3205
sS'tuesday'
p2876
I4096
sS'leipzig'
p2877
I3554
sS'qintex'
p2878
I5965
sS'erased'
p2879
I2326
sS'quit'
p2880
I4758
sS'industrials'
p2881
I174
sS'addition'
p2882
I757
sS'discrimination'
p2883
I4114
sS'liberals'
p2884
I3115
sS'controlled'
p2885
I2228
sS'league'
p2886
I5447
sS'otc'
p2887
I4500
sS'abortions'
p2888
I3502
sS'decreased'
p2889
I4948
sS'novel'
p2890
I2906
sS'harder'
p2891
I4684
sS'owns'
p2892
I2446
sS'surface'
p2893
I4796
sS'fitzwater'
p2894
I4695
sS'disclosures'
p2895
I5706
sS'municipals'
p2896
I5639
sS'generic'
p2897
I2756
sS'balloon'
p2898
I4383
sS'proceeds'
p2899
I2739
sS'parts'
p2900
I1022
sS'speaker'
p2901
I5903
sS'northwest'
p2902
I4675
sS'1990s'
p2903
I2626
sS'underground'
p2904
I3563
sS'party'
p2905
I2203
sS'absorb'
p2906
I5661
sS'effect'
p2907
I1075
sS'discouraged'
p2908
I3160
sS'frequently'
p2909
I3772
sS'transaction'
p2910
I944
sS'i'
p2911
I399
sS'variety'
p2912
I1225
sS'well'
p2913
I398
sS'cupertino'
p2914
I4877
sS'increasingly'
p2915
I2316
sS'accurate'
p2916
I4410
sS'sources'
p2917
I4440
sS'mistakes'
p2918
I5012
sS'distant'
p2919
I3151
sS'house-senate'
p2920
I4205
sS'high-grade'
p2921
I4564
sS'headed'
p2922
I352
sS'deposits'
p2923
I3177
sS'nato'
p2924
I5466
sS'subordinated'
p2925
I4320
sS'warrant'
p2926
I3014
sS'kick'
p2927
I3310
sS'definitive'
p2928
I1900
sS'ample'
p2929
I5686
sS'devised'
p2930
I5412
sS'propelled'
p2931
I2768
sS'burden'
p2932
I2473
sS'immediately'
p2933
I2921
sS'labor-management'
p2934
I2680
sS'prominent'
p2935
I3491
sS'loss'
p2936
I183
sS'lincoln'
p2937
I2893
sS'necessary'
p2938
I4669
sS'lost'
p2939
I1402
sS'payments'
p2940
I1503
sS'lose'
p2941
I3943
sS'page'
p2942
I3252
sS'shed'
p2943
I2759
sS'arbitrage'
p2944
I360
sS'motive'
p2945
I5687
sS'repeat'
p2946
I1726
sS'home'
p2947
I898
sS'peter'
p2948
I850
sS'competitor'
p2949
I3845
sS'broad'
p2950
I1330
sS'delaware'
p2951
I1208
sS'rewarding'
p2952
I5102
sS'demonstrated'
p2953
I3925
sS'inaccurate'
p2954
I4407
sS'reaching'
p2955
I5292
sS'journal'
p2956
I1317
sS'monetary'
p2957
I3464
sS'expansion'
p2958
I1576
sS'offset'
p2959
I298
sS'freedom'
p2960
I3217
sS'recognized'
p2961
I2949
sS'stakes'
p2962
I5129
sS'glenn'
p2963
I2047
sS'previously'
p2964
I1713
sS'washington'
p2965
I1916
sS'h.'
p2966
I3594
sS'artists'
p2967
I3003
sS'additions'
p2968
I5662
sS'cocom'
p2969
I2127
sS'utility'
p2970
I1274
sS'mississippi'
p2971
I3981
sS'additional'
p2972
I1311
sS'whom'
p2973
I2852
sS'12-year'
p2974
I5222
sS'imperial'
p2975
I3411
sS'north'
p2976
I2173
sS'xerox'
p2977
I5605
sS'neutral'
p2978
I4103
sS'gain'
p2979
I966
sS'courts'
p2980
I3401
sS'highest'
p2981
I3201
sS'eat'
p2982
I3948
sS'he'
p2983
I419
sS'bradstreet'
p2984
I891
sS'signed'
p2985
I336
sS'converted'
p2986
I4625
sS'stories'
p2987
I3331
sS'piece'
p2988
I4283
sS'urging'
p2989
I3456
sS'marketplace'
p2990
I374
sS'penny'
p2991
I1449
sS'full-year'
p2992
I2791
sS'education'
p2993
I2863
sS'eric'
p2994
I2437
sS'diego'
p2995
I3423
sS'functions'
p2996
I3926
sS'rumors'
p2997
I215
sS'contest'
p2998
I3751
sS'class-action'
p2999
I3602
sS'gonzalez'
p3000
I4840
sS'star'
p3001
I4098
sS'living'
p3002
I2842
sS'stay'
p3003
I34
sS'additionally'
p3004
I2735
sS'else'
p3005
I1535
sS'friends'
p3006
I3159
sS'persistent'
p3007
I871
sS'portion'
p3008
I590
sS'simpson'
p3009
I633
sS'aided'
p3010
I2516
sS'four-year'
p3011
I2695
sS'protest'
p3012
I4436
sS'aides'
p3013
I5324
sS'consists'
p3014
I3880
sS'undersecretary'
p3015
I5320
sS'whose'
p3016
I900
sS'fronts'
p3017
I6026
sS'segments'
p3018
I3380
sS'contained'
p3019
I4344
sS'presents'
p3020
I912
sS'nominal'
p3021
I5756
sS'swap'
p3022
I2727
sS'sorry'
p3023
I4090
sS'stolen'
p3024
I5689
sS'reforms'
p3025
I326
sS'affect'
p3026
I1637
sS'vast'
p3027
I2059
sS'skills'
p3028
I5275
sS'companies'
p3029
I1267
sS'solution'
p3030
I2916
sS'herbert'
p3031
I4185
sS'indefinitely'
p3032
I1204
sS'convenience'
p3033
I1765
sS'unrelated'
p3034
I2031
sS'cholesterol'
p3035
I2782
sS'enhance'
p3036
I4452
sS'franchisees'
p3037
I3584
sS'heading'
p3038
I4353
sS'clothes'
p3039
I5031
sS'force'
p3040
I872
sS'japanese'
p3041
I1797
sS'likely'
p3042
I960
sS'implemented'
p3043
I4681
sS'even'
p3044
I146
sS'spouses'
p3045
I3999
sS'integrity'
p3046
I1966
sS'panama'
p3047
I3287
sS'nec'
p3048
I4790
sS'asia'
p3049
I5921
sS'spokesman'
p3050
I1024
sS'socialism'
p3051
I5713
sS'new'
p3052
I10
sS'net'
p3053
I854
sS'ever'
p3054
I202
sS'niche'
p3055
I3296
sS'barometer'
p3056
I348
sS'never'
p3057
I114
sS'drew'
p3058
I4395
sS'met'
p3059
I537
sS'governing'
p3060
I2121
sS'active'
p3061
I211
sS'interpret'
p3062
I3698
sS'dry'
p3063
I2306
sS'economics'
p3064
I1955
sS'credit'
p3065
I1983
sS'chrysler'
p3066
I4771
sS'permit'
p3067
I4045
sS'adopting'
p3068
I5947
sS'suitable'
p3069
I1333
sS'besides'
p3070
I3269
sS'campaign'
p3071
I4110
sS'reagan'
p3072
I4182
sS'county'
p3073
I1209
sS'moral'
p3074
I5707
sS'soybean'
p3075
I2263
sS'army'
p3076
I4833
sS'arms'
p3077
I3819
sS'call'
p3078
I575
sS'calm'
p3079
I951
sS'recommend'
p3080
I2384
sS'survive'
p3081
I2600
sS'type'
p3082
I3932
sS'tell'
p3083
I4308
sS'supporters'
p3084
I3475
sS'wary'
p3085
I2207
sS'composite'
p3086
I1160
sS'wars'
p3087
I5821
sS'warm'
p3088
I166
sS'frenzy'
p3089
I2972
sS'adult'
p3090
I5521
sS'room'
p3091
I1785
sS'rights'
p3092
I1773
sS'gasoline'
p3093
I2040
sS'movies'
p3094
I3729
sS'exceptions'
p3095
I2176
sS'give'
p3096
I1720
sS'involve'
p3097
I5205
sS'foods'
p3098
I5366
sS'aging'
p3099
I603
sS'amazing'
p3100
I5136
sS'answer'
p3101
I4499
sS'massive'
p3102
I679
sS'minority'
p3103
I2248
sS'replacing'
p3104
I4630
sS'cadillac'
p3105
I5097
sS'loyalty'
p3106
I3322
sS'president'
p3107
I129
sS'purchase'
p3108
I1774
sS'attempt'
p3109
I2366
sS'third'
p3110
I178
sS'maintain'
p3111
I3991
sS'waited'
p3112
I2324
sS'capitalist'
p3113
I5131
sS'operate'
p3114
I1264
sS'rebates'
p3115
I5101
sS'operations'
p3116
I600
sS'chunk'
p3117
I5988
sS'murray'
p3118
I2716
sS'before'
p3119
I385
sS'personal'
p3120
I2180
sS'crew'
p3121
I5043
sS'better'
p3122
I1397
sS'weeks'
p3123
I248
sS'overcome'
p3124
I4233
sS'dec.'
p3125
I1636
sS'combination'
p3126
I4349
sS'weakness'
p3127
I2539
sS'downright'
p3128
I3004
sS'rhetoric'
p3129
I1913
sS'meat'
p3130
I1438
sS'arrested'
p3131
I6010
sS'mccall'
p3132
I3262
sS'victories'
p3133
I3113
sS'bonn'
p3134
I3549
sS'discipline'
p3135
I5291
sS'went'
p3136
I1384
sS'side'
p3137
I36
sS'mean'
p3138
I2846
sS'adobe'
p3139
I3917
sS'enthusiasts'
p3140
I5272
sS'principles'
p3141
I4026
sS'aide'
p3142
I4218
sS'milan'
p3143
I3807
sS'taught'
p3144
I4612
sS'trading'
p3145
I113
sS'doug'
p3146
I1138
sS'navy'
p3147
I4831
sS'temporary'
p3148
I2879
sS'extract'
p3149
I2495
sS'contend'
p3150
I3780
sS'restricted'
p3151
I4800
sS'crucial'
p3152
I1498
sS'content'
p3153
I3362
sS'reader'
p3154
I1751
sS'surprise'
p3155
I4878
sS'venezuela'
p3156
I1672
sS'turning'
p3157
I2775
sS'resume'
p3158
I1165
sS'u.s.'
p3159
I656
sS'struggle'
p3160
I6027
sS'n.j'
p3161
I3656
sS'starts'
p3162
I4173
sS'signature'
p3163
I3323
sS'arrived'
p3164
I1404
sS'playwright'
p3165
I2830
sS'features'
p3166
I3732
sS'economists'
p3167
I3012
sS'hook'
p3168
I1838
sS'featured'
p3169
I3370
sS'downside'
p3170
I4963
sS'hollywood'
p3171
I2914
sS'somewhat'
p3172
I1014
sS'begins'
p3173
I4995
sS'anxiety'
p3174
I4733
sS'preparation'
p3175
I5718
sS'matter'
p3176
I2157
sS'persuade'
p3177
I1825
sS'bidder'
p3178
I2380
sS'sees'
p3179
I3386
sS'steelmaker'
p3180
I3889
sS'modern'
p3181
I1408
sS'mind'
p3182
I3308
sS'quist'
p3183
I4513
sS'seen'
p3184
I245
sS'seem'
p3185
I1103
sS'seek'
p3186
I2951
sS'r.h.'
p3187
I2527
sS'worsening'
p3188
I1869
sS'mario'
p3189
I842
sS'maria'
p3190
I5609
sS'zealand'
p3191
I5317
sS'don'
p3192
I5810
sS'alarm'
p3193
I4895
sS'dog'
p3194
I3760
sS'competitors'
p3195
I1093
sS'points'
p3196
I25
sS'principle'
p3197
I2244
sS'consumer'
p3198
I3338
sS'dow'
p3199
I19
sS'beaten'
p3200
I4540
sS'coup'
p3201
I3286
sS'jurisdiction'
p3202
I5437
sS'ending'
p3203
I1673
sS'attempts'
p3204
I2699
sS'liberty'
p3205
I4458
sS'stepping'
p3206
I2622
sS'northeast'
p3207
I2522
sS'representing'
p3208
I670
sS'explain'
p3209
I2133
sS'clobbered'
p3210
I1800
sS'jailed'
p3211
I6028
sS'exports'
p3212
I2105
sS'compounded'
p3213
I2803
sS'stop'
p3214
I149
sS'coast'
p3215
I931
sS'christopher'
p3216
I126
sS'comply'
p3217
I4668
sS'conn.'
p3218
I2427
sS'earn'
p3219
I4862
sS'fields'
p3220
I3868
sS'high-yield'
p3221
I2222
sS'rothschild'
p3222
I4329
sS'bag'
p3223
I4361
sS'bad'
p3224
I3195
sS'seeks'
p3225
I2013
sS'rival'
p3226
I2583
sS'ban'
p3227
I6004
sS'schering-plough'
p3228
I2788
sS'reference'
p3229
I723
sS'testing'
p3230
I1788
sS'decided'
p3231
I3120
sS'subject'
p3232
I1563
sS'brazil'
p3233
I1666
sS'said'
p3234
I125
sS'inappropriate'
p3235
I3677
sS'olympics'
p3236
I2548
sS'sorts'
p3237
I4376
sS'wears'
p3238
I4765
sS'restricting'
p3239
I2796
sS'harvard'
p3240
I3142
sS'picking'
p3241
I1555
sS'suggested'
p3242
I3616
sS'prudential'
p3243
I449
sS'deregulation'
p3244
I5979
sS'uncertainty'
p3245
I2585
sS'against'
p3246
I804
sS'ernst'
p3247
I4007
sS'contribution'
p3248
I2954
sS'presumably'
p3249
I4002
sS'appeared'
p3250
I1387
sS'offerings'
p3251
I4705
sS'initiative'
p3252
I4238
sS'aftermath'
p3253
I5601
sS'loaded'
p3254
I4365
sS'puts'
p3255
I5376
sS'basis'
p3256
I1212
sS'three'
p3257
I1059
sS'tiny'
p3258
I4910
sS'commission'
p3259
I416
sS'trigger'
p3260
I3610
sS'interest'
p3261
I755
sS'basic'
p3262
I2243
sS'entered'
p3263
I2948
sS'lovely'
p3264
I2821
sS'deeper'
p3265
I5396
sS'mci'
p3266
I4554
sS'quantities'
p3267
I2330
sS'dismiss'
p3268
I3457
sS'mca'
p3269
I5841
sS'locations'
p3270
I3038
sS'personally'
p3271
I3152
sS'aviation'
p3272
I2148
sS'exception'
p3273
I4794
sS'economies'
p3274
I5852
sS'auction'
p3275
I4580
sS'near'
p3276
I2286
sS'balance'
p3277
I1371
sS'study'
p3278
I1812
sS'pessimistic'
p3279
I5369
sS'seven'
p3280
I99
sS'metropolitan'
p3281
I5854
sS'mexico'
p3282
I1667
sS'is'
p3283
I138
sS'it'
p3284
I1
sS'defeated'
p3285
I5207
sS'ii'
p3286
I5146
sS'cans'
p3287
I4070
sS'in'
p3288
I28
sS'seattle'
p3289
I1040
sS'mouse'
p3290
I5515
sS'disappear'
p3291
I5159
sS'if'
p3292
I403
sS'grown'
p3293
I3969
sS'make'
p3294
I1137
sS'potentially'
p3295
I2939
sS'sidelines'
p3296
I547
sS'grows'
p3297
I2030
sS'generale'
p3298
I5073
sS'meets'
p3299
I2978
sS'governors'
p3300
I3512
sS'sacramento'
p3301
I748
sS'renaissance'
p3302
I4393
sS'i.'
p3303
I5442
sS'opportunity'
p3304
I466
sS'programs'
p3305
I381
sS'changes'
p3306
I1116
sS'practices'
p3307
I1640
sS'claims'
p3308
I639
sS'investments'
p3309
I812
sS'left'
p3310
I162
sS'just'
p3311
I400
sS'yen'
p3312
I5458
sS'sporting'
p3313
I5550
sS'unfair'
p3314
I5498
sS'identify'
p3315
I1344
sS'human'
p3316
I1546
sS'facts'
p3317
I3408
sS'yes'
p3318
I568
sS'yet'
p3319
I666
sS'impending'
p3320
I2649
sS'buyers'
p3321
I65
sS'candidate'
p3322
I3944
sS'regarded'
p3323
I5745
sS'character'
p3324
I5029
sS'justices'
p3325
I3102
sS'save'
p3326
I1622
sS'supervisors'
p3327
I1124
sS'buy-out'
p3328
I219
sS'performing'
p3329
I3753
sS'unnecessary'
p3330
I3873
sS'dean'
p3331
I3238
sS'deal'
p3332
I827
sS'dead'
p3333
I3460
sS'jupiter'
p3334
I3531
sS'short-term'
p3335
I3149
sS'ignore'
p3336
I5255
sS'ore.'
p3337
I3080
sS'notification'
p3338
I1213
sS'outspoken'
p3339
I5148
sS'track'
p3340
I3681
sS'bank-backed'
p3341
I4570
sS'predicting'
p3342
I3009
sS'translated'
p3343
I5333
sS'magazine'
p3344
I2554
sS'afternoon'
p3345
I165
sS'commit'
p3346
I5469
sS'automatically'
p3347
I5409
sS'managers'
p3348
I160
sS'formerly'
p3349
I2397
sS'amounted'
p3350
I4863
sS'intellectual'
p3351
I3170
sS'chooses'
p3352
I4468
sS'down'
p3353
I268
sS'contrasts'
p3354
I5092
sS'doctrine'
p3355
I5236
sS'amsterdam'
p3356
I1223
sS'frightened'
p3357
I4767
sS'communists'
p3358
I5715
sS'initial'
p3359
I3036
sS'per-share'
p3360
I3652
sS'editor'
p3361
I4401
sS'fraction'
p3362
I5007
sS'vacated'
p3363
I2489
sS'offering'
p3364
I953
sS'ford'
p3365
I4372
sS'failure'
p3366
I2018
sS'lows'
p3367
I1004
sS'syndicate'
p3368
I4972
sS'analyst'
p3369
I1158
sS'refunds'
p3370
I2003
sS'prevents'
p3371
I1843
sS'bellwether'
p3372
I3898
sS'plaintiffs'
p3373
I5740
sS'stages'
p3374
I5543
sS'long-distance'
p3375
I4259
sS'classic'
p3376
I1911
sS'one-third'
p3377
I817
sS'covers'
p3378
I678
sS'sale'
p3379
I503
sS'ship'
p3380
I3922
sS'sisulu'
p3381
I3472
sS'phelan'
p3382
I394
sS'generally'
p3383
I2070
sS'digital'
p3384
I2994
sS'felt'
p3385
I2284
sS'utilities'
p3386
I1229
sS'diet'
p3387
I5153
sS'fell'
p3388
I205
sS'exported'
p3389
I2144
sS'authorities'
p3390
I2161
sS'dearborn'
p3391
I5091
sS'weekend'
p3392
I800
sS'died'
p3393
I1543
sS'jones'
p3394
I20
sS'happening'
p3395
I4508
sS'potato'
p3396
I3747
sS'assume'
p3397
I3105
sS'daily'
p3398
I1057
sS'premiums'
p3399
I3196
sS'profits'
p3400
I517
sS'overdue'
p3401
I2968
sS'managed'
p3402
I32
sS'manager'
p3403
I851
sS'manages'
p3404
I4394
sS'skin'
p3405
I5518
sS'mill'
p3406
I5792
sS'premises'
p3407
I5575
sS'milk'
p3408
I1436
sS'anticipation'
p3409
I1293
sS'depend'
p3410
I4391
sS'technique'
p3411
I4621
sS'father'
p3412
I2854
sS'answered'
p3413
I5532
sS'finally'
p3414
I4382
sS'praised'
p3415
I2778
sS'supplemental'
p3416
I4268
sS'marks'
p3417
I1794
sS'stabilizing'
p3418
I5479
sS'suffered'
p3419
I3978
sS'me'
p3420
I2165
sS'string'
p3421
I2792
sS'lynch'
p3422
I469
sS'advised'
p3423
I4550
sS'governments'
p3424
I1694
sS'did'
p3425
I14
sS'die'
p3426
I2673
sS'cheapest'
p3427
I3790
sS'proposals'
p3428
I3575
sS'democrat'
p3429
I4267
sS'round'
p3430
I5671
sS'attracting'
p3431
I3268
sS'olympia'
p3432
I5624
sS'unexpected'
p3433
I2708
sS'telerate'
p3434
I4587
sS'stamford'
p3435
I3834
sS'targets'
p3436
I1953
sS'adds'
p3437
I1548
sS'page-one'
p3438
I553
sS'suspect'
p3439
I5171
sS'international'
p3440
I295
sS'filled'
p3441
I3360
sS'transportation'
p3442
I4552
sS'french'
p3443
I2688
sS'refused'
p3444
I79
sS'wait'
p3445
I5348
sS'alto'
p3446
I4632
sS'hbo'
p3447
I5982
sS'ethics'
p3448
I5869
sS'canadian'
p3449
I772
sS'institute'
p3450
I868
sS'shift'
p3451
I3870
sS'high-tech'
p3452
I421
sS'bob'
p3453
I4697
sS'adjustable'
p3454
I4586
sS'useful'
p3455
I5295
sS'lasts'
p3456
I4302
sS'merely'
p3457
I1698
sS'soliciting'
p3458
I5845
sS'flexibility'
p3459
I3501
sS'ailing'
p3460
I5733
sS'hotels'
p3461
I1747
sS'everybody'
p3462
I3771
sS'wealth'
p3463
I4897
sS'kohlberg'
p3464
I1617
sS'france'
p3465
I2683
sS'insider'
p3466
I5020
sS'francs'
p3467
I5544
sS'saks'
p3468
I2530
sS'sharing'
p3469
I2941
sS'acceptable'
p3470
I5822
sS'tandem'
p3471
I4875
sS'effort'
p3472
I1515
sS'government-owned'
p3473
I4816
sS'fly'
p3474
I1053
sS'tokyo'
p3475
I4387
sS'avoiding'
p3476
I1368
sS'soup'
p3477
I4100
sS'growing'
p3478
I1796
sS'making'
p3479
I625
sS'arrive'
p3480
I1066
sS'claim'
p3481
I2509
sS'crazy'
p3482
I2381
sS'kenneth'
p3483
I1473
sS'predict'
p3484
I1122
sS'agent'
p3485
I5040
sS'sample'
p3486
I4014
sS'battered'
p3487
I1145
sS'council'
p3488
I2977
sS'dennis'
p3489
I5877
sS'prime-time'
p3490
I3312
sS'chemical'
p3491
I1383
sS'sunday'
p3492
I1202
sS'staying'
p3493
I3996
sS'designer'
p3494
I1306
sS'may'
p3495
I828
sS'max'
p3496
I5027
sS'mac'
p3497
I4582
sS'mae'
p3498
I4589
sS'mad'
p3499
I3108
sS'guys'
p3500
I3954
sS'grow'
p3501
I3010
sS'man'
p3502
I2856
sS'scrambling'
p3503
I3957
sS'johnson'
p3504
I5315
sS'maybe'
p3505
I2881
sS'borrowing'
p3506
I4219
sS'switch'
p3507
I5801
sS'jail'
p3508
I5265
sS'deposit'
p3509
I3199
sS'african'
p3510
I3478
sS'basket'
p3511
I5363
sS'talk'
p3512
I988
sS'shoes'
p3513
I4067
sS'distributors'
p3514
I3348
sS'disclosure'
p3515
I2163
sS'gradual'
p3516
I2172
sS'pointed'
p3517
I4423
sS'shaky'
p3518
I5592
sS'argues'
p3519
I1491
sS'stability'
p3520
I4359
sS'recoup'
p3521
I5017
sS'petrochemicals'
p3522
I2046
sS'argued'
p3523
I1430
sS'consolidating'
p3524
I2761
sS'setbacks'
p3525
I3002
sS'group'
p3526
I111
sS'monitor'
p3527
I5319
sS'interesting'
p3528
I5154
sS'undermined'
p3529
I1493
sS'listing'
p3530
I5332
sS'policy'
p3531
I1604
sS'main'
p3532
I1624
sS'texas'
p3533
I1069
sS'finance'
p3534
I1239
sS'views'
p3535
I1152
sS'rattled'
p3536
I4936
sS'sooner'
p3537
I5911
sS'lunch'
p3538
I5006
sS'killed'
p3539
I5967
sS'teller'
p3540
I673
sS'attorneys'
p3541
I5750
sS'beach'
p3542
I3586
sS'tandy'
p3543
I4789
sS'gamble'
p3544
I1787
sS'rock'
p3545
I5155
sS'jenrette'
p3546
I5833
sS's&p'
p3547
I329
sS's&l'
p3548
I2226
sS'speculators'
p3549
I150
sS'girl'
p3550
I2843
sS'canada'
p3551
I780
sS'emerges'
p3552
I2363
sS'deficit-reduction'
p3553
I4194
sS'jackson'
p3554
I3462
sS'bailout'
p3555
I3184
sS'emerged'
p3556
I5674
sS'dutch'
p3557
I4650
sS'dominate'
p3558
I4904
sS'correct'
p3559
I2008
sS'earlier'
p3560
I601
sS'mercantile'
p3561
I337
sS'hefty'
p3562
I3648
sS'california'
p3563
I1332
sS'advance'
p3564
I2957
sS'language'
p3565
I4104
sS'ministry'
p3566
I3846
sS'listings'
p3567
I3724
sS'thing'
p3568
I914
sS'think'
p3569
I350
sS'frequent'
p3570
I3131
sS'first'
p3571
I47
sS'exotic'
p3572
I2824
sS'americans'
p3573
I1972
sS'long'
p3574
I1156
sS'suspended'
p3575
I599
sS'carry'
p3576
I1501
sS'corporations'
p3577
I4260
sS'little'
p3578
I2354
sS'anyone'
p3579
I4521
sS'plains'
p3580
I2270
sS'alfred'
p3581
I5358
sS'participated'
p3582
I5211
sS'speaking'
p3583
I1895
sS'moscow'
p3584
I2315
sS'broadcast'
p3585
I1621
sS'hartford'
p3586
I2568
sS'undoubtedly'
p3587
I524
sS'greenberg'
p3588
I4762
sS'cracks'
p3589
I5894
sS'protected'
p3590
I1693
sS'venture'
p3591
I1335
sS'were'
p3592
I70
sS'gathering'
p3593
I3305
sS'topics'
p3594
I4178
sS'conspiracy'
p3595
I2428
sS'190.58-point'
p3596
I181
sS'occupied'
p3597
I3562
sS'warsaw'
p3598
I3551
sS'efficient'
p3599
I4509
sS'upgrading'
p3600
I5939
sS'consortium'
p3601
I609
sS'endangered'
p3602
I5463
sS'potential'
p3603
I767
sS'performance'
p3604
I530
sS'switching'
p3605
I3376
sS'channel'
p3606
I3307
sS'bets'
p3607
I229
sS'upham'
p3608
I4714
sS'norman'
p3609
I4165
sS'theatre'
p3610
I3779
sS'normal'
p3611
I919
sS'arguing'
p3612
I3171
sS'paid'
p3613
I2549
sS'assault'
p3614
I5681
sS'skinner'
p3615
I4674
sS'complaints'
p3616
I2020
sS'especially'
p3617
I2521
sS'surprising'
p3618
I2082
sS'properly'
p3619
I527
sS'shop'
p3620
I5156
sS'rating'
p3621
I4319
sS'shot'
p3622
I3607
sS'show'
p3623
I1986
sS'delta'
p3624
I282
sS'sites'
p3625
I698
sS'rep.'
p3626
I4402
sS'forecast'
p3627
I2051
sS'fend'
p3628
I5080
sS'dick'
p3629
I3175
sS'enough'
p3630
I2301
sS'black'
p3631
I4
sS'raising'
p3632
I714
sS'treasury'
p3633
I782
sS'enthusiasm'
p3634
I4352
sS'pegged'
p3635
I4818
sS'ranking'
p3636
I4254
sS'get'
p3637
I264
sS'contracts'
p3638
I502
sS'pricings'
p3639
I4970
sS'employers'
p3640
I5284
sS'hailed'
p3641
I4700
sS'nearly'
p3642
I273
sS'secondary'
p3643
I3052
sS'busiest'
p3644
I4504
sS'yield'
p3645
I2310
sS'morning'
p3646
I512
sS'miles'
p3647
I4774
sS'finishing'
p3648
I4872
sS'worrying'
p3649
I5919
sS'declared'
p3650
I279
sS'seat'
p3651
I2488
sS'relative'
p3652
I3689
sS'j.'
p3653
I393
sS'eliminating'
p3654
I4928
sS'calendar'
p3655
I5602
sS'wonder'
p3656
I3034
sS'indicted'
p3657
I6001
sS'label'
p3658
I4811
sS'behind'
p3659
I1416
sS'reading'
p3660
I3224
sS'across'
p3661
I927
sS'infrastructure'
p3662
I5938
sS'august'
p3663
I857
sS'parent'
p3664
I207
sS'approvals'
p3665
I1346
sS'jr'
p3666
I2442
sS'signaled'
p3667
I2598
sS'killing'
p3668
I4634
sS'trader'
p3669
I242
sS'trades'
p3670
I4506
sS'according'
p3671
I624
sS'dated'
p3672
I789
sS'holders'
p3673
I1511
sS'traded'
p3674
I190
sS'among'
p3675
I946
sS'forecasting'
p3676
I3634
sS'cancer'
p3677
I5771
sS'grants'
p3678
I5001
sS'cancel'
p3679
I1214
sS'considering'
p3680
I1231
sS'unusual'
p3681
I949
sS'capable'
p3682
I1301
sS'mark'
p3683
I3658
sS'judging'
p3684
I5011
sS'borders'
p3685
I5122
sS'centrust'
p3686
I3667
sS'shopping'
p3687
I704
sS'offered'
p3688
I760
sS'dramatic'
p3689
I3117
sS'wake'
p3690
I2345
sS'prof.'
p3691
I3174
sS'those'
p3692
I516
sS'sound'
p3693
I2871
sS'aerospace'
p3694
I1197
sS"n't"
p3695
I3
sS'associates'
p3696
I935
sS'jefferies'
p3697
I5823
sS'promising'
p3698
I4784
sS'margin'
p3699
I4350
sS'conferences'
p3700
I1976
sS'then'
p3701
I172
sS'sleeping'
p3702
I2822
sS'middle'
p3703
I3829
sS'sudden'
p3704
I1549
sS'movements'
p3705
I4911
sS'bags'
p3706
I1435
sS'different'
p3707
I993
sS'pat'
p3708
I4867
sS'pay'
p3709
I1506
sS'same'
p3710
I1502
sS'speech'
p3711
I3125
sS'arguments'
p3712
I3437
sS'stepped'
p3713
I429
sS'pan'
p3714
I4861
sS'disappointment'
p3715
I3750
sS'jeffrey'
p3716
I484
sS'oil'
p3717
I1443
sS'assist'
p3718
I2097
sS'companion'
p3719
I4204
sS'running'
p3720
I816
sS'climbing'
p3721
I3642
sS'totally'
p3722
I3599
sS'drain'
p3723
I3961
sS'largely'
p3724
I1505
sS'wellington'
p3725
I886
sS'mortgages'
p3726
I3664
sS'bottle'
p3727
I6021
sS'easing'
p3728
I3615
sS'pa.'
p3729
I883
sS'peace'
p3730
I6030
sS'suitor'
p3731
I1599
sS'money'
p3732
I159
sS'fueling'
p3733
I3613
sS'miami-based'
p3734
I3672
sS'backs'
p3735
I3398
sS'flavor'
p3736
I3147
sS'multiples'
p3737
I4566
sS'dipped'
p3738
I4072
sS'rental'
p3739
I3067
sS'pile'
p3740
I3741
sS'extensive'
p3741
I4482
sS'heavier'
p3742
I4901
sS'careers'
p3743
I4003
sS'grip'
p3744
I1584
sS'boesel'
p3745
I1006
sS'forge'
p3746
I882
sS'simmons'
p3747
I5788
sS'grid'
p3748
I4795
sS'underwriting'
p3749
I5645
sS'aiming'
p3750
I4130
sS'disappointed'
p3751
I2095
sS'grim'
p3752
I1575
sS'knight-ridder'
p3753
I2584
sS'serves'
p3754
I1284
sS"'ve"
p3755
I859
sS'facing'
p3756
I3208
sS'chamber'
p3757
I1897
sS'audience'
p3758
I3321
sS'either'
p3759
I1937
sS'retailers'
p3760
I1807
sS'served'
p3761
I5229
sS'voluntarily'
p3762
I5628
sS'dole'
p3763
I4206
sS'specified'
p3764
I5235
sS'images'
p3765
I3340
sS'organizing'
p3766
I5200
sS'booming'
p3767
I2535
sS'gross'
p3768
I5219
sS'confirm'
p3769
I2152
sS'overly'
p3770
I4299
sS'critical'
p3771
I4137
sS'affiliate'
p3772
I2573
sS'staffs'
p3773
I2762
sS'measuring'
p3774
I1783
sS'specializing'
p3775
I5737
sS'underwriters'
p3776
I2737
sS'airways'
p3777
I4676
sS'manufactured'
p3778
I5934
sS'notable'
p3779
I2092
sS'broker'
p3780
I2349
sS'notably'
p3781
I5397
sS'broken'
p3782
I1195
sS'manufacturer'
p3783
I1077
sS'regulations'
p3784
I5884
sS'stations'
p3785
I3353
sS'island'
p3786
I2567
sS'marc'
p3787
I4748
sS'practical'
p3788
I4449
sS'airline'
p3789
I220
sS'pockets'
p3790
I5964
sS'mounting'
p3791
I2627
sS'mixed'
p3792
I2515
sS'provisional'
p3793
I663
sS'quietly'
p3794
I3836
sS'coupon'
p3795
I5617
sS'spreading'
p3796
I3786
sS'vacation'
p3797
I5891
sS'strip'
p3798
I4696
sS'pharmaceutical'
p3799
I2398
sS'deadlines'
p3800
I3206
sS'strikes'
p3801
I3497
sS'sophisticated'
p3802
I2135
sS'bebear'
p3803
I5067
sS'flamboyant'
p3804
I5028
sS'arranged'
p3805
I5902
sS'romantic'
p3806
I2861
sS'benton'
p3807
I3937
sS'manuel'
p3808
I5314
sS'deep'
p3809
I2571
sS'fellow'
p3810
I4121
sS'examine'
p3811
I3637
sS'file'
p3812
I1990
sS'lifetime'
p3813
I4763
sS'casualty'
p3814
I5045
sS'fill'
p3815
I3026
sS'again'
p3816
I73
sS'personnel'
p3817
I5529
sS'field'
p3818
I2481
sS'cleanup'
p3819
I2934
sS'students'
p3820
I4031
sS'important'
p3821
I2167
sS'brands'
p3822
I1849
sS'equitable'
p3823
I2953
sS'prudent'
p3824
I5309
sS'assets'
p3825
I640
sS'unload'
p3826
I3705
sS'resembles'
p3827
I4145
sS'resolution'
p3828
I1144
sS'represent'
p3829
I2259
sS'colleges'
p3830
I5283
sS'suburban'
p3831
I1592
sS'dollar'
p3832
I144
sS'founded'
p3833
I5212
sS'commute'
p3834
I3468
sS'talks'
p3835
I1194
sS'sung'
p3836
I3625
sS'reluctant'
p3837
I3028
sS'modernization'
p3838
I5953
sS'alberta'
p3839
I1283
sS'premium'
p3840
I2198
sS'sitting'
p3841
I3835
sS'witter'
p3842
I3239
sS'fall'
p3843
I15
sS'difference'
p3844
I370
sS'norfolk'
p3845
I5915
sS'celebrity'
p3846
I3736
sS'wsj'
p3847
I544
sS'saudi'
p3848
I3573
sS'economically'
p3849
I5855
sS'20th'
p3850
I5143
sS'titled'
p3851
I4495
sS'portable'
p3852
I5519
sS'nonperforming'
p3853
I3653
sS'perception'
p3854
I3271
sS'quebec'
p3855
I2655
sS'lawyer'
p3856
I3455
sS'further'
p3857
I908
sS'dial'
p3858
I3725
sS'abc'
p3859
I3379
sS'stood'
p3860
I4841
sS'short-lived'
p3861
I4343
sS'public'
p3862
I1277
sS'movement'
p3863
I6009
sS'ranged'
p3864
I3388
sS'newspaper'
p3865
I2512
sS'operating'
p3866
I611
sS'table'
p3867
I1136
sS'admits'
p3868
I4810
sS'search'
p3869
I4305
sS'airport'
p3870
I4276
sS'published'
p3871
I4496
sS'narrow'
p3872
I2877
sS'buses'
p3873
I3939
sS'africa'
p3874
I3469
sS'establish'
p3875
I2002
sS'donaldson'
p3876
I5831
sS'shareholders'
p3877
I832
sS'eye'
p3878
I2496
sS'two'
p3879
I548
sS'restraints'
p3880
I5969
sS'diamond'
p3881
I1320
sS'staggering'
p3882
I965
sS'leonard'
p3883
I3593
sS'landed'
p3884
I5341
sS'particular'
p3885
I457
sS'town'
p3886
I687
sS'none'
p3887
I2672
sS'hour'
p3888
I30
sS'strain'
p3889
I5177
sS'recall'
p3890
I2833
sS'des'
p3891
I4316
sS'remain'
p3892
I1500
sS'pressing'
p3893
I5717
sS'halts'
p3894
I278
sS'abandon'
p3895
I4599
sS'strategies'
p3896
I5416
sS'purchases'
p3897
I876
sS'compare'
p3898
I1918
sS'share'
p3899
I921
sS'minimum'
p3900
I791
sS'numbers'
p3901
I1562
sS'purchased'
p3902
I1345
sS'sharp'
p3903
I4834
sS'robinson'
p3904
I4186
sS'maturing'
p3905
I788
sS'needs'
p3906
I1461
sS'plans'
p3907
I783
sS'comfort'
p3908
I3001
sS'advice'
p3909
I4347
sS'par'
p3910
I4590
sS'questioning'
p3911
I2108
sS'fast-growing'
p3912
I2769
sS'blood'
p3913
I2770
sS'coming'
p3914
I2317
sS'response'
p3915
I1524
sS'bleak'
p3916
I5288
sS'brady'
p3917
I4181
sS'crowded'
p3918
I4780
sS'coal'
p3919
I5914
sS'responsibility'
p3920
I4929
sS'pleasure'
p3921
I2904
sS'playing'
p3922
I4215
sS'setback'
p3923
I4213
sS'radar'
p3924
I3821
sS'appeals'
p3925
I3394
sS'through'
p3926
I372
sS'existence'
p3927
I5269
sS'suffer'
p3928
I5501
sS'pre-trial'
p3929
I5511
sS'pcs'
p3930
I2486
sS'seasonally'
p3931
I4838
sS'late'
p3932
I830
sS'hurting'
p3933
I3916
sS'good'
p3934
I531
sS'seeking'
p3935
I759
sS'males'
p3936
I5252
sS'compound'
p3937
I3630
sS'complain'
p3938
I545
sS'viewers'
p3939
I3302
sS'mystery'
p3940
I2928
sS'easily'
p3941
I3688
sS'habits'
p3942
I3354
sS'helmsley'
p3943
I3045
sS'ports'
p3944
I574
sS'everyone'
p3945
I4339
sS'house'
p3946
I1725
sS'energy'
p3947
I2343
sS'hard'
p3948
I1095
sS'buy-outs'
p3949
I2984
sS'extended'
p3950
I5540
sS'insurance'
p3951
I450
sS'initiatives'
p3952
I4663
sS'funding'
p3953
I612
sS's.a.'
p3954
I2682
sS'g.m.b'
p3955
I3860
sS'discouraging'
p3956
I3784
sS'participants'
p3957
I5250
sS'longtime'
p3958
I3956
sS'print'
p3959
I1638
sS'lawrence'
p3960
I1159
sS'backer'
p3961
I2377
sS'extraordinary'
p3962
I4333
sS'terminals'
p3963
I3946
sS'mmi'
p3964
I5415
sS'members'
p3965
I1032
sS'backed'
p3966
I4979
sS'beginning'
p3967
I1273
sS'benefits'
p3968
I4245
sS'computers'
p3969
I2123
sS'pilots'
p3970
I5568
sS'done'
p3971
I2711
sS'embraced'
p3972
I1816
sS'mccaw'
p3973
I4542
sS'revive'
p3974
I3556
sS'least'
p3975
I973
sS'regulation'
p3976
I5950
sS'assumption'
p3977
I619
sS'statement'
p3978
I665
sS'compromise'
p3979
I3507
sS'lease'
p3980
I3035
sS'park'
p3981
I4487
sS'sizable'
p3982
I1352
sS'part'
p3983
I588
sS'favorable'
p3984
I2517
sS'doctors'
p3985
I4249
sS'believe'
p3986
I1864
sS'peaked'
p3987
I1469
sS'b'
p3988
I4722
sS'youth'
p3989
I5166
sS'contrary'
p3990
I3397
sS'supposed'
p3991
I1054
sS'messrs.'
p3992
I2490
sS'declare'
p3993
I455
sS'aug.'
p3994
I2502
sS'ages'
p3995
I5142
sS'roughly'
p3996
I1635
sS'aged'
p3997
I3997
sS'orders'
p3998
I306
sS'mountain'
p3999
I3924
sS'collateralized'
p4000
I4986
sS'built'
p4001
I810
sS'depending'
p4002
I3662
sS'majority'
p4003
I737
sS'build'
p4004
I649
sS'commentary'
p4005
I4422
sS'province'
p4006
I5925
sS'eggs'
p4007
I5920
sS'most'
p4008
I26
sS'significant'
p4009
I478
sS'services'
p4010
I969
sS'extremely'
p4011
I210
sS'unavailable'
p4012
I5977
sS'weigh'
p4013
I4791
sS'joining'
p4014
I3110
sS'sector'
p4015
I970
sS'thomas'
p4016
I2479
sS'particularly'
p4017
I2088
sS'obligations'
p4018
I536
sS'businesses'
p4019
I1282
sS'carefully'
p4020
I3638
sS'fine'
p4021
I5262
sS'networks'
p4022
I1650
sS'giant'
p4023
I1272
sS'merger'
p4024
I2257
sS'nervous'
p4025
I250
sS'distributed'
p4026
I1776
sS'sugarman'
p4027
I5558
sS'merged'
p4028
I2787
sS'adjustments'
p4029
I5418
sS'permission'
p4030
I3517
sS'express'
p4031
I5557
sS'cheaper'
p4032
I5278
sS'theft'
p4033
I6002
sS'lufkin'
p4034
I5832
sS'merchandise'
p4035
I3246
sS'resolve'
p4036
I1188
sS'frankly'
p4037
I5783
sS'collapsed'
p4038
I5842
sS'doubled'
p4039
I1702
sS'six-month'
p4040
I4708
sS'common'
p4041
I1775
sS'fuel'
p4042
I1380
sS'restaurants'
p4043
I4849
sS'individual'
p4044
I3364
sS'leslie'
p4045
I2311
sS'surrendered'
p4046
I176
sS'tender'
p4047
I1782
sS'feared'
p4048
I1870
sS'repairs'
p4049
I5112
sS'expert'
p4050
I4370
sS'visiting'
p4051
I4778
sS'fans'
p4052
I4054
sS'burned'
p4053
I4823
sS'responses'
p4054
I5238
sS'dividends'
p4055
I2728
sS'aircraft'
p4056
I579
sS'half-hour'
p4057
I4605
sS'full-time'
p4058
I5248
sS'reverse'
p4059
I3679
sS'restaurant'
p4060
I3060
sS'annual'
p4061
I1392
sS'foreign'
p4062
I1678
sS'baltimore'
p4063
I4636
sS'consume'
p4064
I5022
sS'point'
p4065
I194
sS'simple'
p4066
I5806
sS'recycling'
p4067
I5559
sS'ga.'
p4068
I2619
sS'tennessee'
p4069
I4728
sS'simply'
p4070
I1908
sS'shutdown'
p4071
I2650
sS'unsuccessful'
p4072
I5753
sS'asserted'
p4073
I4480
sS'throughout'
p4074
I1479
sS'expensive'
p4075
I2335
sS'raise'
p4076
I784
sS'create'
p4077
I3275
sS'rivals'
p4078
I1798
sS'secret'
p4079
I5016
sS'dropping'
p4080
I2802
sS'ireland'
p4081
I565
sS'meeting'
p4082
I1522
sS'vans'
p4083
I2642
sS'gas'
p4084
I1281
sS'gap'
p4085
I3940
sS'understand'
p4086
I5356
sS'prices'
p4087
I309
sS'resisted'
p4088
I5170
sS'fur'
p4089
I3047
sS'raw'
p4090
I1355
sS'solid'
p4091
I3908
sS'bill'
p4092
I1948
sS'elections'
p4093
I3561
sS'deferred'
p4094
I5603
sS'replaced'
p4095
I1784
sS'denominations'
p4096
I792
sS'fun'
p4097
I3735
sS'portugal'
p4098
I5932
sS'century'
p4099
I5144
sS'cents'
p4100
I1013
sS'encountered'
p4101
I4809
sS'itself'
p4102
I515
sS'limit'
p4103
I434
sS'okla.'
p4104
I5228
sS'italy'
p4105
I2109
sS'butcher'
p4106
I4661
sS'proved'
p4107
I4609
sS'one-hour'
p4108
I5394
sS'development'
p4109
I733
sS'strips'
p4110
I4985
sS'yesterday'
p4111
I395
sS'moment'
p4112
I4692
sS'purpose'
p4113
I5531
sS'task'
p4114
I5399
sS'spent'
p4115
I3484
sS'flags'
p4116
I3476
sS'withdraw'
p4117
I1729
sS'landmark'
p4118
I4649
sS'entry'
p4119
I4303
sS'spend'
p4120
I3204
sS'one-year'
p4121
I4585
sS'junk-bond'
p4122
I2368
sS'shape'
p4123
I2625
sS'openly'
p4124
I2179
sS'alternative'
p4125
I3921
sS'railroad'
p4126
I5916
sS'letting'
p4127
I4142
sS'cut'
p4128
I1517
sS'cup'
p4129
I1829
sS'source'
p4130
I2142
sS'deliberately'
p4131
I4408
sS'administrative'
p4132
I1361
sS'big'
p4133
I62
sS'bid'
p4134
I267
sS'matters'
p4135
I4473
sS'bit'
p4136
I2847
sS'follows'
p4137
I2191
sS'disks'
p4138
I4820
sS'indication'
p4139
I2314
sS'depositary'
p4140
I3082
sS'often'
p4141
I1579
sS'collectors'
p4142
I5578
sS'absolutely'
p4143
I5943
sS'back'
p4144
I428
sS'examples'
p4145
I4371
sS'mirror'
p4146
I2566
sS'reruns'
p4147
I3791
sS'contacts'
p4148
I5323
sS'pet'
p4149
I4229
sS'affects'
p4150
I2654
sS'decision'
p4151
I2508
sS'integration'
p4152
I3712
sS'per'
p4153
I1790
sS'newark'
p4154
I1070
sS'eliminate'
p4155
I2740
sS'remembered'
p4156
I2860
sS'paribas'
p4157
I5070
sS'continuing'
p4158
I1198
sS'fed'
p4159
I541
sS'carbide'
p4160
I1442
sS'goods'
p4161
I2178
sS'consumption'
p4162
I2333
sS'diversifying'
p4163
I5923
sS'pfizer'
p4164
I896
sS'mrs.'
p4165
I1880
sS'drama'
p4166
I3726
sS'consequently'
p4167
I3850
sS'retailer'
p4168
I750
sS'steven'
p4169
I945
sS'lesson'
p4170
I1003
sS'bankruptcy'
p4171
I657
sS'ontario'
p4172
I2646
sS'pharmaceuticals'
p4173
I3086
sS'forward'
p4174
I1754
sS'keating'
p4175
I5873
sS'translate'
p4176
I1905
sS'opponent'
p4177
I4118
sS'boyd'
p4178
I632
sS'bitterly'
p4179
I5505
sS'hoped'
p4180
I3612
sS'boys'
p4181
I2902
sS'hopes'
p4182
I1287
sS'subsidiary'
p4183
I710
sS'directed'
p4184
I5698
sS"'re"
p4185
I837
sS'exploration'
p4186
I3530
sS'planes'
p4187
I584
sS'jumbo'
p4188
I1128
sS'constant'
p4189
I1119
sS'flow'
p4190
I4916
sS'single'
p4191
I1091
sS'curb'
p4192
I4274
sS'prevail'
p4193
I3723
sS'streamlining'
p4194
I4265
sS'packwood'
p4195
I4698
sS'statutes'
p4196
I1935
sS'lend'
p4197
I3420
sS'prepared'
p4198
I475
sS'cater'
p4199
I444
sS'rallied'
p4200
I5857
sS'implies'
p4201
I5257
sS'vehicles'
p4202
I2629
sS'bankers'
p4203
I720
sS'notion'
p4204
I3436
sS'implied'
p4205
I4125
sS'rallies'
p4206
I5350
sS'daimler-benz'
p4207
I3838
sS'j.c.'
p4208
I3241
sS'literary'
p4209
I3757
sS'quarterly'
p4210
I1518
sS'lilly'
p4211
I895
sS'mehta'
p4212
I2706
sS'queen'
p4213
I3319
sS'us$'
p4214
I1237
sS'putting'
p4215
I1373
sS'arrange'
p4216
I3565
sS'entire'
p4217
I2206
sS'recreation'
p4218
I5549
sS'moderate'
p4219
I3101
sS'joel'
p4220
I5546
sS'shock'
p4221
I4526
sS'bleeding'
p4222
I5874
sS'crop'
p4223
I2271
sS'carla'
p4224
I1873
sS'depression'
p4225
I4367
sS'reconciliation'
p4226
I5649
sS'edison'
p4227
I4843
sS'chicago'
p4228
I95
sS'giving'
p4229
I2195
sS'access'
p4230
I1969
sS'microprocessor'
p4231
I4814
sS'exercise'
p4232
I1570
sS'body'
p4233
I4453
sS'exchange'
p4234
I13
sS'montedison'
p4235
I4969
sS'sink'
p4236
I4919
sS'others'
p4237
I1487
sS'widening'
p4238
I4993
sS'talent'
p4239
I3344
sS'alaska'
p4240
I3983
sS'later'
p4241
I1112
sS'climb'
p4242
I3632
sS'honor'
p4243
I5270
sS'fourth-quarter'
p4244
I1988
sS'named'
p4245
I730
sS'private'
p4246
I610
sS'decrease'
p4247
I2550
sS'names'
p4248
I2836
sS'scandal'
p4249
I5683
sS'kangyo'
p4250
I5053
sS'metromedia'
p4251
I4544
sS'themselves'
p4252
I272
sS'defendant'
p4253
I4467
sS'trail'
p4254
I1733
sS'train'
p4255
I3776
sS'ncnb'
p4256
I3186
sS'billed'
p4257
I2418
sS'iii'
p4258
I5213
sS'subscription'
p4259
I3245
sS'account'
p4260
I2355
sS'f'
p4261
I5335
sS'obvious'
p4262
I4153
sS'parkway'
p4263
I4730
sS'rehabilitation'
p4264
I5217
sS'violence'
p4265
I6040
sS'effectively'
p4266
I358
sS'reserves'
p4267
I3666
sS'employs'
p4268
I2664
sS'atlanta-based'
p4269
I634
sS'democracy'
p4270
I5676
sS'holds'
p4271
I844
sS'regions'
p4272
I3987
sS'responsibilities'
p4273
I2812
sS'winners'
p4274
I3941
sS'forest'
p4275
I680
sS'stock'
p4276
I12
sS'buildings'
p4277
I1749
sS'highs'
p4278
I981
sS'philosophy'
p4279
I648
sS'collection'
p4280
I4278
sS'bothered'
p4281
I4123
sS'leisure'
p4282
I4078
sS'billings'
p4283
I5786
sS'fray'
p4284
I432
sS'lines'
p4285
I284
sS'chief'
p4286
I628
sS'lined'
p4287
I2671
sS'institutional'
p4288
I318
sS'bunch'
p4289
I4430
sS'industries'
p4290
I285
sS'revived'
p4291
I5400
sS'la'
p4292
I3767
sS'winning'
p4293
I3128
sS'whites'
p4294
I6036
sS'willing'
p4295
I3435
sS'criminal'
p4296
I4427
sS'greater'
p4297
I4457
sS'dan'
p4298
I4230
sS'toshiba'
p4299
I4788
sS'mention'
p4300
I4138
sS'cutting'
p4301
I1722
sS'mandate'
p4302
I5672
sS'insisting'
p4303
I4889
sS'day'
p4304
I168
sS'capital-gains'
p4305
I4195
sS'february'
p4306
I695
sS'airports'
p4307
I4294
sS'profit-taking'
p4308
I2344
sS'l.'
p4309
I447
sS'warned'
p4310
I3499
sS'preclude'
p4311
I4474
sS'oversubscribed'
p4312
I5616
sS'identified'
p4313
I1949
sS'morris'
p4314
I108
sS'warner'
p4315
I3247
sS'wade'
p4316
I3158
sS'slumped'
p4317
I2264
sS'salesman'
p4318
I4168
sS'announcer'
p4319
I3806
sS'defend'
p4320
I4447
sS'insolvent'
p4321
I3426
sS'electronics'
p4322
I3046
sS'red'
p4323
I3225
sS'harold'
p4324
I4035
sS'approached'
p4325
I2373
sS'frank'
p4326
I1172
sS'payroll'
p4327
I4279
sS'approaches'
p4328
I3713
sS'likelihood'
p4329
I4001
sS'implication'
p4330
I5744
sS'receipts'
p4331
I4553
sS'allies'
p4332
I2116
sS'stearns'
p4333
I2758
sS'barriers'
p4334
I1945
sS'retain'
p4335
I5782
sS'retail'
p4336
I1351
sS'south'
p4337
I1668
sS'plastics'
p4338
I1381
sS'strategic'
p4339
I2177
sS'embarrassed'
p4340
I4074
sS'improvements'
p4341
I3895
sS'hurdle'
p4342
I4235
sS'lagging'
p4343
I2096
sS'reached'
p4344
I576
sS'owning'
p4345
I5962
sS'ancient'
p4346
I2839
sS'single-a-1'
p4347
I4976
sS'unspecified'
p4348
I2498
sS'intermediate'
p4349
I2351
sS'explanation'
p4350
I3277
sS'acquire'
p4351
I2184
sS'environmental'
p4352
I2933
sS'discretionary'
p4353
I4017
sS'slack'
p4354
I4918
sS'sweden'
p4355
I1681
sS'visited'
p4356
I2236
sS'c.d.s'
p4357
I4568
sS'comfortable'
p4358
I4023
sS'tide'
p4359
I1823
sS'unlikely'
p4360
I874
sS'have'
p4361
I404
sS'apparently'
p4362
I4432
sS'dallas'
p4363
I3443
sS'incentive'
p4364
I5039
sS'montgomery'
p4365
I4719
sS'mix'
p4366
I3795
sS'concerns'
p4367
I2139
sS'cosby'
p4368
I4148
sS'unless'
p4369
I4600
sS'eight'
p4370
I2465
sS'preliminary'
p4371
I2499
sS'payment'
p4372
I1514
sS'police'
p4373
I729
sS'collateral'
p4374
I4561
sS'gather'
p4375
I5494
sS'request'
p4376
I3693
sS'disease'
p4377
I2785
sS'capita'
p4378
I4029
sS'artificially'
p4379
I3260
sS'occasion'
p4380
I3092
sS'normally'
p4381
I929
sS'supported'
p4382
I4411
sS'portfolio'
p4383
I962
sS'staff'
p4384
I937
sS'knowledge'
p4385
I1178
sS'controls'
p4386
I2104
sS'bernard'
p4387
I3314
sS'communist'
p4388
I3539
sS'regularly'
p4389
I1526
sS'beat'
p4390
I97
sS'bear'
p4391
I1485
sS'timing'
p4392
I1386
sS'areas'
p4393
I1744
sS'calling'
p4394
I152
sS'tightening'
p4395
I1583
sS'cycles'
p4396
I1413
sS'conform'
p4397
I5563
sS'exists'
p4398
I5940
sS'racked'
p4399
I4947
sS'national'
p4400
I1423
sS'we'
p4401
I239
sS'intensity'
p4402
I4139
sS'greece'
p4403
I3787
sS'reform'
p4404
I4209
sS'pattern'
p4405
I3985
sS'discounts'
p4406
I3265
sS'difficulties'
p4407
I1994
sS'routine'
p4408
I5536
sS'progress'
p4409
I1943
sS'deliver'
p4410
I1111
sS'commenting'
p4411
I1605
sS'freely'
p4412
I5124
sS'taking'
p4413
I922
sS'equal'
p4414
I1026
sS'attributed'
p4415
I2754
sS'trips'
p4416
I4073
sS'assure'
p4417
I1379
sS'attributes'
p4418
I5803
sS'otherwise'
p4419
I2385
sS'comment'
p4420
I1653
sS'relevant'
p4421
I4464
sS'mafia'
p4422
I3768
sS'earning'
p4423
I5957
sS'pouring'
p4424
I2628
sS'tremendous'
p4425
I4351
sS'copies'
p4426
I5524
sS'indicators'
p4427
I4342
sS'proposal'
p4428
I2258
sS'curtail'
p4429
I3153
sS'airplanes'
p4430
I5654
sS'climate'
p4431
I2908
sS'bulk'
p4432
I3194
sS'finished'
p4433
I2352
sS'bull'
p4434
I4314
sS'general'
p4435
I1924
sS'volunteer'
p4436
I5173
sS'homes'
p4437
I4775
sS'plain'
p4438
I4472
sS'appearance'
p4439
I4704
sS'darman'
p4440
I4210
sS'value'
p4441
I671
sS'frustrating'
p4442
I5724
sS'chaotic'
p4443
I5367
sS'dissent'
p4444
I3098
sS'helped'
p4445
I405
sS'arrangements'
p4446
I2823
sS'arabia'
p4447
I3574
sS'partner'
p4448
I2707
sS'inspector'
p4449
I3769
sS'nine-month'
p4450
I6007
sS'shearson'
p4451
I487
sS'tumbled'
p4452
I4502
sS'administration'
p4453
I1685
sS'tumbling'
p4454
I3608
sS'film'
p4455
I724
sS'shuttle'
p4456
I3522
sS'injured'
p4457
I3765
sS'tighten'
p4458
I3942
sS'material'
p4459
I1582
sS'novels'
p4460
I2929
sS'reporting'
p4461
I2514
sS'giuliani'
p4462
I4108
sS'judgment'
p4463
I3449
sS'scholars'
p4464
I3141
sS'tighter'
p4465
I2631
sS'center'
p4466
I422
sS'nevertheless'
p4467
I982
sS'antonio'
p4468
I1068
sS'thought'
p4469
I445
sS'sets'
p4470
I4829
sS'comparisons'
p4471
I4946
sS'muscle'
p4472
I2660
sS'arising'
p4473
I5392
sS'usual'
p4474
I1531
sS'stores'
p4475
I2035
sS'executive'
p4476
I629
sS'domestic'
p4477
I1719
sS'clinic'
p4478
I3766
sS'underlying'
p4479
I4183
sS'seats'
p4480
I4442
sS'tone'
p4481
I1884
sS'ads'
p4482
I5805
sS'add'
p4483
I3887
sS'smart'
p4484
I5311
sS'tests'
p4485
I4640
sS'petrochemical'
p4486
I5864
sS'judiciary'
p4487
I4454
sS'royalty'
p4488
I3601
sS'like'
p4489
I572
sS'excluding'
p4490
I3622
sS'journalism'
p4491
I3320
sS'journalist'
p4492
I1956
sS'works'
p4493
I5119
sS'mid-1990s'
p4494
I2601
sS'soviet'
p4495
I2106
sS'italian'
p4496
I2132
sS'alive'
p4497
I5140
sS'hair'
p4498
I4087
sS'recommendation'
p4499
I2703
sS'proper'
p4500
I5907
sS'novelist'
p4501
I2829
sS'supportive'
p4502
I2328
sS'happens'
p4503
I4144
sS'est'
p4504
I5318
sS'hurricane'
p4505
I3579
sS'assuming'
p4506
I2970
sS'chains'
p4507
I676
sS'regain'
p4508
I5709
sS'slight'
p4509
I3979
sS'host'
p4510
I1716
sS'although'
p4511
I1374
sS'worthy'
p4512
I3774
sS'snapped'
p4513
I904
sS'lockheed'
p4514
I1196
sS'panel'
p4515
I5430
sS'about'
p4516
I177
sS'actual'
p4517
I3282
sS'justin'
p4518
I5485
sS'withdrew'
p4519
I3412
sS'introduced'
p4520
I1801
sS'billions'
p4521
I2991
sS'guard'
p4522
I1809
sS'female'
p4523
I2848
sS'rushed'
p4524
I5586
sS'fastest-growing'
p4525
I4015
sS'awarded'
p4526
I2410
sS'biggest'
p4527
I471
sS'touted'
p4528
I5861
sS'buy'
p4529
I365
sS'insurer'
p4530
I1565
sS'bus'
p4531
I3928
sS'brand'
p4532
I1834
sS'but'
p4533
I7
sS'insured'
p4534
I1564
sS'partially'
p4535
I4438
sS'lynn'
p4536
I4043
sS'dangerous'
p4537
I4069
sS'minutes'
p4538
I262
sS'supreme'
p4539
I3091
sS'exceeded'
p4540
I3458
sS'crusade'
p4541
I3773
sS'periods'
p4542
I1410
sS'pit'
p4543
I339
sS'campus'
p4544
I3317
sS'misstated'
p4545
I4317
sS'corporation'
p4546
I2602
sS'claiming'
p4547
I5736
sS'detail'
p4548
I2885
sS'starting'
p4549
I2593
sS'baker'
p4550
I1084
sS'biotechnology'
p4551
I2691
sS'limited'
p4552
I1248
sS'facilities'
p4553
I1312
sS'sleep'
p4554
I5500
sS'nwa'
p4555
I4860
sS'appetite'
p4556
I3789
sS'assembled'
p4557
I5230
sS'poorly'
p4558
I5580
sS'sanford'
p4559
I664
sS'paris'
p4560
I1314
sS'crises'
p4561
I3297
sS'under'
p4562
I334
sS'merchant'
p4563
I5384
sS'lure'
p4564
I3328
sS'legislators'
p4565
I5454
sS'risk'
p4566
I224
sS'rise'
p4567
I233
sS'every'
p4568
I274
sS'jack'
p4569
I5970
sS'school'
p4570
I3143
sS'cause'
p4571
I525
sS'enjoy'
p4572
I5986
sS'leaders'
p4573
I2633
sS'consistent'
p4574
I1926
sS'estimates'
p4575
I1017
sS'direct'
p4576
I3849
sS'disciplined'
p4577
I5290
sS'street'
p4578
I222
sS'estimated'
p4579
I620
sS'blue'
p4580
I909
sS'hide'
p4581
I3137
sS'selected'
p4582
I4378
sS'profitability'
p4583
I2041
sS'supplied'
p4584
I1675
sS'children'
p4585
I2866
sS'conduct'
p4586
I5764
sS'supplier'
p4587
I2449
sS'supplies'
p4588
I2065
sS'disney'
p4589
I104
sS'kicked'
p4590
I4604
sS'hundreds'
p4591
I3162
sS'studio'
p4592
I5971
sS'represented'
p4593
I819
sS'lyonnais'
p4594
I5071
sS'enron'
p4595
I1297
sS'voice'
p4596
I4106
sS'forum'
p4597
I2115
sS'ventures'
p4598
I3799
sS'leaves'
p4599
I2718
sS'changed'
p4600
I3998
sS'analysts'
p4601
I1016
sS'settled'
p4602
I513
sS'feelings'
p4603
I4688
sS'visible'
p4604
I4912
sS'swings'
p4605
I364
sS'would'
p4606
I231
sS'hospital'
p4607
I1545
sS'm.'
p4608
I5373
sS'noting'
p4609
I1486
sS'asset'
p4610
I2372
sS'phone'
p4611
I798
sS'connecticut'
p4612
I4030
sS'tampa'
p4613
I3219
sS'must'
p4614
I794
sS'shoot'
p4615
I4836
sS'join'
p4616
I3837
sS'dodd'
p4617
I3289
sS'deficiencies'
p4618
I2009
sS'install'
p4619
I5429
sS'henry'
p4620
I5926
sS'my'
p4621
I462
sS'shook'
p4622
I6025
sS'estate'
p4623
I702
sS'florida'
p4624
I699
sS'preserving'
p4625
I5973
sS'scheduling'
p4626
I1050
sS'times'
p4627
I1403
sS'attract'
p4628
I1598
sS'guarantee'
p4629
I3244
sS'end'
p4630
I189
sS'writers'
p4631
I3777
sS'gate'
p4632
I6013
sS'widespread'
p4633
I3493
sS'charging'
p4634
I2219
sS'badly'
p4635
I1459
sS'elizabeth'
p4636
I4063
sS'mess'
p4637
I5974
sS'mesa'
p4638
I3227
sS'danny'
p4639
I5659
sS'amid'
p4640
I2800
sS'acknowledged'
p4641
I2151
sS'patent'
p4642
I2493
sS'ultimate'
p4643
I4081
sS'enter'
p4644
I1977
sS'plumbing'
p4645
I4777
sS'executed'
p4646
I4515
sS'over'
p4647
I752
sS'expects'
p4648
I977
sS'london'
p4649
I1315
sS'reformers'
p4650
I5424
sS'digest'
p4651
I3261
sS'expectations'
p4652
I1023
sS'writing'
p4653
I3148
sS'compelling'
p4654
I5949
sS'iowa'
p4655
I3964
sS'tourist'
p4656
I2433
sS'prevented'
p4657
I3181
sS'tourism'
p4658
I2439
sS'30-year'
p4659
I4583
sS'netherlands'
p4660
I4190
sS'alex'
p4661
I3230
sS'notified'
p4662
I2938
sS'detroit'
p4663
I2586
sS'herald'
p4664
I2588
sS'filling'
p4665
I1707
sS'newport'
p4666
I1010
sS'victory'
p4667
I3123
sS'each'
p4668
I1758
sS'prohibit'
p4669
I5961
sS'signing'
p4670
I5850
sS'leftist'
p4671
I5712
sS'sears'
p4672
I5378
sS'combining'
p4673
I2253
sS'saturday'
p4674
I926
sS'depress'
p4675
I5157
sS'driving'
p4676
I2076
sS'laid'
p4677
I4304
sS'banning'
p4678
I6033
sS'got'
p4679
I906
sS'newly'
p4680
I1658
sS'gop'
p4681
I4699
sS'independence'
p4682
I3992
sS'sept.'
p4683
I552
sS'associate'
p4684
I3256
sS'rail'
p4685
I3495
sS'free'
p4686
I1892
sS'fred'
p4687
I5875
sS'formation'
p4688
I3596
sS'evil'
p4689
I5127
sS'wanted'
p4690
I382
sS'days'
p4691
I1928
sS'priorities'
p4692
I4012
sS'pence'
p4693
I5474
sS'rand'
p4694
I2987
sS'industrial'
p4695
I21
sS'primary'
p4696
I1742
sS'hearing'
p4697
I4459
sS'restrict'
p4698
I3510
sS'relations'
p4699
I492
sS'neighborhood'
p4700
I3055
sS'sharpest'
p4701
I203
sS'mercury'
p4702
I2590
sS'toy'
p4703
I5527
sS'top'
p4704
I241
sS'long-awaited'
p4705
I4781
sS'euphoria'
p4706
I5357
sS'ton'
p4707
I2562
sS'too'
p4708
I569
sS'tom'
p4709
I1083
sS'percentage'
p4710
I199
sS'serve'
p4711
I3054
sS'took'
p4712
I327
sS'negotiating'
p4713
I1912
sS'incur'
p4714
I2955
sS'western'
p4715
I2103
sS'longer-term'
p4716
I5554
sS'abandoning'
p4717
I6005
sS'roles'
p4718
I2485
sS'bloated'
p4719
I4201
sS'classes'
p4720
I3669
sS'perspective'
p4721
I5851
sS'bridge'
p4722
I5795
sS'fashion'
p4723
I684
sS'ran'
p4724
I2073
sS'arby'
p4725
I3583
sS'talking'
p4726
I412
sS'lbo'
p4727
I2973
sS'relatively'
p4728
I1660
sS'founding'
p4729
I6029
sS'traditionally'
p4730
I3827
sS'client'
p4731
I2405
sS'hatch'
p4732
I5762
sS'greatest'
p4733
I5829
sS'though'
p4734
I1086
sS'posner'
p4735
I3589
sS'court-appointed'
p4736
I662
sS'plenty'
p4737
I4685
sS'coin'
p4738
I3742
sS'rogers'
p4739
I3904
sS'devastating'
p4740
I4503
sS'metal'
p4741
I4548
sS'treaty'
p4742
I2175
sS'orderly'
p4743
I4516
sS'reputation'
p4744
I2399
sS'flom'
p4745
I5758
sS'after-tax'
p4746
I5809
sS'contacted'
p4747
I5094
sS'reductions'
p4748
I4886
sS'random'
p4749
I1101
sS'mutual-fund'
p4750
I916
sS'colors'
p4751
I1844
sS'radio'
p4752
I1639
sS'bail'
p4753
I4598
sS'delays'
p4754
I1038
sS'minnesota'
p4755
I3972
sS'takeover-stock'
p4756
I223
sS'announce'
p4757
I3284
sS'blue-collar'
p4758
I4146
sS'borrowed'
p4759
I4628
sS'asbestos'
p4760
I5766
sS'watch'
p4761
I423
sS'criticized'
p4762
I71
sS'despite'
p4763
I1696
sS'report'
p4764
I1011
sS'countries'
p4765
I1290
sS'twice'
p4766
I918
sS'automatic'
p4767
I304
sS'mergers'
p4768
I717
sS'1960s'
p4769
I3129
sS'resist'
p4770
I5338
sS'capacity'
p4771
I1495
sS'machinists'
p4772
I1030
sS'finger'
p4773
I4666
sS'approach'
p4774
I1367
sS'bargains'
p4775
I4357
sS'adding'
p4776
I947
sS'confusion'
p4777
I357
sS'weak'
p4778
I994
sS'however'
p4779
I200
sS'boss'
p4780
I3798
sS'southeast'
p4781
I751
sS'wear'
p4782
I4085
sS'news'
p4783
I214
sS'improve'
p4784
I2043
sS'faced'
p4785
I2533
sS'protect'
p4786
I3718
sS'meredith'
p4787
I4037
sS'credit-card'
p4788
I1750
sS'participating'
p4789
I5467
sS'players'
p4790
I2969
sS'games'
p4791
I2865
sS'faces'
p4792
I4887
sS'expense'
p4793
I2474
sS'sullivan'
p4794
I4735
sS'betting'
p4795
I4050
sS'weiss'
p4796
I4881
sS'trust'
p4797
I354
sS'conference'
p4798
I1930
sS'beef'
p4799
I5151
sS'binge'
p4800
I744
sS'rebounded'
p4801
I877
sS'been'
p4802
I249
sS'quickly'
p4803
I1804
sS'confident'
p4804
I4217
sS'beer'
p4805
I5074
sS'expected'
p4806
I689
sS'publisher'
p4807
I2557
sS'drugs'
p4808
I2744
sS'republicans'
p4809
I4207
sS'uncommon'
p4810
I3073
sS'enterprises'
p4811
I5927
sS'craft'
p4812
I5569
sS'catch'
p4813
I2734
sS'lesser'
p4814
I5196
sS'p.m'
p4815
I3313
sS's&ls'
p4816
I3182
sS'expenses'
p4817
I3891
sS'experts'
p4818
I3041
sS'suggest'
p4819
I3410
sS'wound'
p4820
I5417
sS'complex'
p4821
I4880
sS'inventory'
p4822
I4523
sS'several'
p4823
I243
sS'satellite'
p4824
I3785
sS'social'
p4825
I2919
sS'suburb'
p4826
I2925
sS'characters'
p4827
I5008
sS'insisted'
p4828
I3560
sS'cycle'
p4829
I4964
sS'shortly'
p4830
I2238
sS'savings'
p4831
I1353
sS'cigna'
p4832
I4846
sS'mother'
p4833
I2851
sS'seasonal'
p4834
I2523
sS'proposed'
p4835
I216
sS'unemployment'
p4836
I4301
sS'able'
p4837
I123
sS'laptop'
p4838
I4815
sS'grades'
p4839
I1453
sS'campbell'
p4840
I715
sS'resigning'
p4841
I2483
sS'eli'
p4842
I894
sS'monitored'
p4843
I5694
sS'greenwich'
p4844
I4607
sS'thick'
p4845
I4793
sS'advanced'
p4846
I2464
sS'non-u.s.'
p4847
I4971
sS'lenders'
p4848
I4750
sS'gave'
p4849
I2689
sS'casting'
p4850
I5618
sS'low-income'
p4851
I4239
sS'advances'
p4852
I5081
sS'breaks'
p4853
I2166
sS'cultural'
p4854
I3714
sS'judge'
p4855
I3316
sS'rumor'
p4856
I275
sS'apart'
p4857
I16
sS'exxon'
p4858
I2054
sS'appearing'
p4859
I3374
sS'hunt'
p4860
I5708
sS'specific'
p4861
I1291
sS'offices'
p4862
I163
sS'officer'
p4863
I630
sS'hung'
p4864
I5118
sS'successfully'
p4865
I5773
sS'malaysia'
p4866
I5929
sS'clubs'
p4867
I4742
sS'election'
p4868
I5714
sS'escape'
p4869
I4282
sS'proceeding'
p4870
I4481
sS'armed'
p4871
I6016
sS'totals'
p4872
I5109
sS'everything'
p4873
I1534
sS'newsprint'
p4874
I2518
sS'shamir'
p4875
I3566
sS'christmas'
p4876
I5936
sS'core'
p4877
I2028
sS'corn'
p4878
I2262
sS'disappeared'
p4879
I4624
sS'discount'
p4880
I1779
sS'corp'
p4881
I132
sS'permitted'
p4882
I3439
sS'chapter'
p4883
I655
sS'census'
p4884
I3968
sS'plunging'
p4885
I3631
sS'dinner'
p4886
I3334
sS'misleading'
p4887
I4409
sS'plus'
p4888
I703
sS'steadily'
p4889
I1552
sS'efforts'
p4890
I1492
sS'civic'
p4891
I5208
sS'civil'
p4892
I3114
sS'obtaining'
p4893
I4439
sS'donated'
p4894
I5895
sS'dreyfus'
p4895
I2401
sS'rely'
p4896
I5848
sS'free-market'
p4897
I5431
sS'transform'
p4898
I3695
sS'diseases'
p4899
I5769
sS'class'
p4900
I4016
sS'stuck'
p4901
I1971
sS'fought'
p4902
I5274
sS'head'
p4903
I716
sS'attempted'
p4904
I3285
sS'differences'
p4905
I479
sS'deny'
p4906
I6003
sS'heat'
p4907
I1308
sS'hear'
p4908
I1921
sS'sustained'
p4909
I1488
sS'removed'
p4910
I5729
sS'counsel'
p4911
I2965
sS'portions'
p4912
I2307
sS'versions'
p4913
I1220
sS'bids'
p4914
I793
sS'donald'
p4915
I2985
sS'sometime'
p4916
I2963
sS'check'
p4917
I1102
sS'constructed'
p4918
I3025
sS'looked'
p4919
I2892
sS'no'
p4920
I0
sS'when'
p4921
I143
sS'tim'
p4922
I3808
sS'setting'
p4923
I1365
sS'papers'
p4924
I2532
sS'picture'
p4925
I2042
sS'reconsider'
p4926
I3126
sS'phoenix'
p4927
I1043
sS'loan-loss'
p4928
I3654
sS'liquidate'
p4929
I2298
sS'preceding'
p4930
I778
sS'football'
p4931
I3447
sS'younger'
p4932
I4000
sS'longer'
p4933
I1169
sS'vigorously'
p4934
I5897
sS'uncovered'
p4935
I4643
sS'serious'
p4936
I2609
sS'roh'
p4937
I3532
sS'remarkable'
p4938
I3709
sS'impression'
p4939
I1959
sS'alternatives'
p4940
I1982
sS'focus'
p4941
I3272
sS'deliveries'
p4942
I1074
sS'leads'
p4943
I4049
sS'row'
p4944
I3251
sS'passage'
p4945
I5164
sS'environment'
p4946
I481
sS'charge'
p4947
I2634
sS'promoting'
p4948
I5035
sS'weakening'
p4949
I1597
sS'henderson'
p4950
I135
sS'broadly'
p4951
I3008
sS'emphasized'
p4952
I3518
sS'cool'
p4953
I52
sS'denounced'
p4954
I5126
sS'level'
p4955
I522
sS'philippines'
p4956
I5930
sS'brother'
p4957
I4084
sS'standards'
p4958
I2869
sS'domestically'
p4959
I5086
sS'yale'
p4960
I4493
sS'quick'
p4961
I1496
sS'money-market'
p4962
I941
sS'eroding'
p4963
I1411
sS'accumulation'
p4964
I4920
sS'pork'
p4965
I5481
sS'specializes'
p4966
I637
sS'says'
p4967
I1419
sS'tougher'
p4968
I1856
sS'trend'
p4969
I1851
sS'injunction'
p4970
I2500
sS'inland'
p4971
I3888
sS'widened'
p4972
I4198
sS'slowed'
p4973
I4917
sS'chicken'
p4974
I4099
sS'substitute'
p4975
I5202
sS'drinks'
p4976
I4062
sS'constitution'
p4977
I4419
sS'goes'
p4978
I1865
sS'water'
p4979
I1270
sS'baseball'
p4980
I5391
sS'groups'
p4981
I917
sS'supplying'
p4982
I1710
sS'healthy'
p4983
I3193
sS'guilty'
p4984
I2425
sS'weird'
p4985
I2903
sS'navigation'
p4986
I5561
sS'soybeans'
p4987
I2299
sS'crisis'
p4988
I1594
sS'handled'
p4989
I2413
sS'third-quarter'
p4990
I2053
sS'sports'
p4991
I5548
sS'upheld'
p4992
I5514
sS'memory'
p4993
I4785
sS'australian'
p4994
I740
sS'today'
p4995
I458
sS'unwarranted'
p4996
I5847
sS'equivalents'
p4997
I4400
sS'dismal'
p4998
I5083
sS'cases'
p4999
I3059
sS'autumn'
p5000
I167
sS'local'
p5001
I1206
sS'flagship'
p5002
I2570
sS'ms.'
p5003
I983
sS'trump'
p5004
I2986
sS'figure'
p5005
I1027
sS'critic'
p5006
I5633
sS'sued'
p5007
I2004
sS'dropped'
p5008
I1457
sS'counting'
p5009
I1096
sS'parliamentary'
p5010
I5693
sS'requirements'
p5011
I1499
sS'secured'
p5012
I621
sS'minivans'
p5013
I5103
sS'vital'
p5014
I5382
sS'fourth'
p5015
I1979
sS'ensure'
p5016
I3984
sS'subsidiaries'
p5017
I4330
sS'levy'
p5018
I5599
sS'paramount'
p5019
I4874
sS'information'
p5020
I371
sS'eighth'
p5021
I2620
sS'branches'
p5022
I796
sS'commodity'
p5023
I1407
sS'inform'
p5024
I5203
sS'syndicated'
p5025
I4873
sS'equities'
p5026
I5614
sS'undervalued'
p5027
I5860
sS'mainly'
p5028
I507
sS'stock-index'
p5029
I347
sS'blocked'
p5030
I3843
sS'leases'
p5031
I3029
sS'chips'
p5032
I910
sS'presence'
p5033
I6039
sS'offers'
p5034
I1777
sS'meridian'
p5035
I3222
sS'happened'
p5036
I2058
sS'conversations'
p5037
I5695
sS'term'
p5038
I1155
sS'name'
p5039
I1600
sS'stabilize'
p5040
I959
sS'corners'
p5041
I4538
sS'possibilities'
p5042
I4799
sS'telesis'
p5043
I110
sS'weighted'
p5044
I4980
sS'catching'
p5045
I5364
sS'begun'
p5046
I118
sS'distributor'
p5047
I1591
sS'tumultuous'
p5048
I3481
sS'intended'
p5049
I3405
sS'bellsouth'
p5050
I4374
sS'factors'
p5051
I975
sS'profit'
p5052
I1393
sS'oklahoma'
p5053
I2312
sS'factory'
p5054
I2623
sS'maneuver'
p5055
I4656
sS'theory'
p5056
I2289
sS'unfriendly'
p5057
I5063
sS'software'
p5058
I2015
sS'impose'
p5059
I3715
sS'motion'
p5060
I2511
sS'unpaid'
p5061
I5249
sS'place'
p5062
I834
sS'swing'
p5063
I3874
sS'discontinued'
p5064
I2457
sS'suspend'
p5065
I3668
sS'merrill'
p5066
I468
sS'revenue'
p5067
I1279
sS'commissioners'
p5068
I5076
sS'array'
p5069
I3650
sS'george'
p5070
I446
sS'engineer'
p5071
I1572
sS'given'
p5072
I1530
sS'necessarily'
p5073
I4907
sS'district'
p5074
I1085
sS'trillion'
p5075
I4610
sS'plastic'
p5076
I5476
sS'returns'
p5077
I4494
sS'convention'
p5078
I4724
sS'white'
p5079
I1724
sS'gives'
p5080
I3000
sS'hud'
p5081
I4425
sS'exploring'
p5082
I1292
sS'releases'
p5083
I3488
sS'season'
p5084
I1651
sS'circulated'
p5085
I5742
sS'alan'
p5086
I2476
sS'released'
p5087
I3609
sS'operates'
p5088
I2034
sS'holder'
p5089
I4323
sS'specify'
p5090
I1631
sS'population'
p5091
I3960
sS'wide'
p5092
I2752
sS'unfortunately'
p5093
I4080
sS'require'
p5094
I643
sS'spokeswoman'
p5095
I1224
sS'accused'
p5096
I5117
sS'cards'
p5097
I5780
sS'outcome'
p5098
I3407
sS'and'
p5099
I57
sS'interest-rate'
p5100
I4908
sS'anc'
p5101
I3471
sS'pro'
p5102
I4133
sS'rent'
p5103
I3033
sS'sells'
p5104
I1850
sS'any'
p5105
I535
sS'prosperity'
p5106
I4937
sS'phillips'
p5107
I2049
sS'ideal'
p5108
I2242
sS'strengths'
p5109
I4642
sS'blunt'
p5110
I2102
sS'urge'
p5111
I5339
sS'sure'
p5112
I1079
sS'sherman'
p5113
I2818
sS'falls'
p5114
I1606
sS'fcc'
p5115
I5775
sS'considered'
p5116
I2658
sS'proud'
p5117
I5381
sS'uncle'
p5118
I2886
sS'senior'
p5119
I127
sS'catalyst'
p5120
I5608
sS'drastically'
p5121
I3390
sS'allegations'
p5122
I2143
sS'gulf'
p5123
I2099
sS'state'
p5124
I1356
sS'crime'
p5125
I4483
sS'cautioned'
p5126
I477
sS'hedge'
p5127
I4384
sS'installed'
p5128
I41
sS'reveal'
p5129
I5743
sS'regarding'
p5130
I1265
sS'aluminum'
p5131
I5952
sS'jokes'
p5132
I4129
sS'embassy'
p5133
I3550
sS'predicted'
p5134
I2318
sS'discussing'
p5135
I1623
sS'imposing'
p5136
I5243
sS'violated'
p5137
I2159
sS'bargain'
p5138
I5344
sS'college'
p5139
I4032
sS'stanley'
p5140
I4725
sS'encouraged'
p5141
I2563
sS'fails'
p5142
I5581
sS'voluntary'
p5143
I1686
sS'mortgage'
p5144
I3660
sS'farmers'
p5145
I2266
sS'ways'
p5146
I1378
sS'subsequent'
p5147
I4479
sS'review'
p5148
I667
sS'commitments'
p5149
I4584
sS'weapons'
p5150
I3830
sS'outside'
p5151
I1585
sS'emotional'
p5152
I4380
sS'cities'
p5153
I3069
sS'come'
p5154
I427
sS'reaction'
p5155
I1009
sS'acquiring'
p5156
I4854
sS'successes'
p5157
I5478
sS'region'
p5158
I3881
sS'quiet'
p5159
I171
sS'contract'
p5160
I330
sS'senator'
p5161
I4257
sS'duty'
p5162
I4088
sS'color'
p5163
I1808
sS'pot'
p5164
I4163
sS'colony'
p5165
I2208
sS'period'
p5166
I388
sS'pop'
p5167
I3716
sS'satisfaction'
p5168
I5405
sS'poll'
p5169
I5190
sS'two-year'
p5170
I4679
sS'runaway'
p5171
I5346
sS'howard'
p5172
I1157
sS'subscriber'
p5173
I3255
sS'declining'
p5174
I2520
sS'peaceful'
p5175
I5452
sS'helicopter'
p5176
I1207
sS'featuring'
p5177
I3369
sS'engine'
p5178
I3526
sS'direction'
p5179
I753
sS'reimburse'
p5180
I5755
sS'andrew'
p5181
I1862
sS'foreclosed'
p5182
I3448
sS'minister'
p5183
I2440
sS'careful'
p5184
I5746
sS'irrelevant'
p5185
I3929
sS'spirit'
p5186
I5150
sS'case'
p5187
I1532
sS'j.p.'
p5188
I3018
sS'cash'
p5189
I254
sS'arnold'
p5190
I2441
sS'cast'
p5191
I2608
sS'telephone'
p5192
I813
sS'dissident'
p5193
I2678
sS'couples'
p5194
I3994
sS'someone'
p5195
I3740
sS'refiners'
p5196
I2079
sS'participant'
p5197
I5276
sS'author'
p5198
I4158
sS'granted'
p5199
I2738
sS'trip'
p5200
I1881
sS'shifts'
p5201
I2525
sS'manila'
p5202
I2895
sS'buys'
p5203
I4960
sS'insurers'
p5204
I4593
sS'events'
p5205
I3005
sS'week'
p5206
I206
sS'refusal'
p5207
I5383
sS'drives'
p5208
I3250
sS'director'
p5209
I376
sS'delicate'
p5210
I3557
sS'changing'
p5211
I1451
sS'vowed'
p5212
I2618
sS'relies'
p5213
I4898
sS'pennsylvania'
p5214
I3976
sS'ranch'
p5215
I3444
sS'without'
p5216
I346
sS'relief'
p5217
I1958
sS'components'
p5218
I5781
sS'relied'
p5219
I3696
sS'inability'
p5220
I2640
sS'model'
p5221
I373
sS'justify'
p5222
I3451
sS'unconstitutional'
p5223
I5263
sS'actions'
p5224
I3452
sS'polish'
p5225
I4128
sS'baldwin'
p5226
I4710
sS'blow'
p5227
I4052
sS'announcement'
p5228
I2406
sS'hint'
p5229
I1463
sS'rose'
p5230
I1329
sS'seems'
p5231
I1285
sS'except'
p5232
I5096
sS'westinghouse'
p5233
I4845
sS'bloc'
p5234
I2107
sS'association'
p5235
I3215
sS'samples'
p5236
I5517
sS'poised'
p5237
I4905
sS'disrupt'
p5238
I3604
sS'kingdom'
p5239
I561
sS'virginia'
p5240
I3176
sS'inflation'
p5241
I3606
sS'accepted'
p5242
I2809
sS'furniture'
p5243
I3048
sS'walt'
p5244
I103
sS'standstill'
p5245
I5555
sS'kennedy'
p5246
I4293
sS'patrick'
p5247
I5747
sS'donations'
p5248
I5457
sS'recalls'
p5249
I1569
sS'tower'
p5250
I692
sS'reduced'
p5251
I2273
sS'burdens'
p5252
I4900
sS'madrid'
p5253
I3800
sS'competition'
p5254
I1249
sS'cowboys'
p5255
I3446
sS'provided'
p5256
I646
sS'swaps'
p5257
I5814
sS'legal'
p5258
I3140
sS'moon'
p5259
I4498
sS'provides'
p5260
I5216
sS'provider'
p5261
I2463
sS'freed'
p5262
I3470
sS'seven-year'
p5263
I5629
sS'on'
p5264
I61
sS'ok'
p5265
I5049
sS'oh'
p5266
I567
sS'surged'
p5267
I5634
sS'of'
p5268
I27
sS'discussed'
p5269
I4853
sS'medicare'
p5270
I4250
sS'stand'
p5271
I1081
sS'or'
p5272
I182
sS'tribe'
p5273
I3146
sS'cambridge'
p5274
I4312
sS'instruments'
p5275
I1020
sS'rising'
p5276
I996
sS'determine'
p5277
I4703
sS'gary'
p5278
I4997
sS'strictly'
p5279
I5125
sS'there'
p5280
I157
sS'alleged'
p5281
I2017
sS'deteriorating'
p5282
I2039
sS'valley'
p5283
I881
sS'morrison'
p5284
I5776
sS'fundamentals'
p5285
I2974
sS'regard'
p5286
I5682
sS'idea'
p5287
I4341
sS'grumman'
p5288
I4830
sS'promote'
p5289
I1950
sS'faster'
p5290
I3295
sS'applying'
p5291
I4595
sS'wholesale'
p5292
I1350
sS'connaught'
p5293
I2685
sS'l.a.'
p5294
I2915
sS'strongly'
p5295
I2561
sS'toilet'
p5296
I4441
sS'taylor'
p5297
I2560
sS'taste'
p5298
I3759
sS'totaling'
p5299
I4296
sS'minneapolis'
p5300
I3088
sS'cbs'
p5301
I3383
sS'britain'
p5302
I563
sS'politics'
p5303
I4135
sS'spends'
p5304
I1632
sS'incorrect'
p5305
I5942
sS'narrowing'
p5306
I3989
sS'announcements'
p5307
I2604
sS'separate'
p5308
I1192
sS'symbol'
p5309
I2679
sS'includes'
p5310
I618
sS'included'
p5311
I672
sS'creditor'
p5312
I5808
sS'stocks'
p5313
I56
sS'booked'
p5314
I1052
sS'calls'
p5315
I799
sS'wife'
p5316
I2926
sS'invest'
p5317
I4602
sS'odds'
p5318
I4027
sS'directors'
p5319
I1525
sS'missouri'
p5320
I3973
sS'apparel'
p5321
I2037
sS'all'
p5322
I212
sS'chinese'
p5323
I5034
sS'lack'
p5324
I2357
sS'projected'
p5325
I2277
sS'surgical'
p5326
I5313
sS'follow'
p5327
I1853
sS'settlement'
p5328
I1996
sS'decisions'
p5329
I3121
sS'apartment'
p5330
I2883
sS'acting'
p5331
I719
sS'thursday'
p5332
I785
sS'removal'
p5333
I4291
sS'program'
p5334
I316
sS'lawmakers'
p5335
I3571
sS'activities'
p5336
I3691
sS'fax'
p5337
I1746
sS'woman'
p5338
I3708
sS'worse'
p5339
I2089
sS'song'
p5340
I2888
sS'far'
p5341
I1860
sS'rod'
p5342
I4819
sS'fat'
p5343
I963
sS'roe'
p5344
I3156
sS'sons'
p5345
I3232
sS'worst'
p5346
I4501
sS'awful'
p5347
I5342
sS'sony'
p5348
I5487
sS'treating'
p5349
I2783
sS'list'
p5350
I1934
sS'prolonged'
p5351
I1082
sS'ten'
p5352
I3511
sS'haas'
p5353
I4549
sS'ted'
p5354
I3292
sS'breakers'
p5355
I40
sS'rate'
p5356
I1325
sS'nbc'
p5357
I3377
sS'what'
p5358
I521
sS'imported'
p5359
I1715
sS'sun'
p5360
I3906
sS'mgm\\/ua'
p5361
I5966
sS'brief'
p5362
I424
sS'version'
p5363
I4211
sS'christian'
p5364
I3570
sS'supposedly'
p5365
I1890
sS'mayoral'
p5366
I4109
sS'skidded'
p5367
I1455
sS'thrift'
p5368
I2220
sS'high-school'
p5369
I5225
sS'difficulty'
p5370
I3903
sS'double-digit'
p5371
I3627
sS'allows'
p5372
I5951
sS'options'
p5373
I2205
sS'suddenly'
p5374
I5051
sS'screens'
p5375
I3749
sS'fla.'
p5376
I3220
sS'proceed'
p5377
I2701
sS'markets'
p5378
I345
sS'minor'
p5379
I1664
sS'flat'
p5380
I1558
sS'mellon'
p5381
I5386
sS'knows'
p5382
I520
sS'operators'
p5383
I3347
sS'flag'
p5384
I6011
sS'stick'
p5385
I1483
sS'known'
p5386
I1422
sS'debates'
p5387
I5699
sS'tennis'
p5388
I4066
sS'challenging'
p5389
I2131
sS'brown'
p5390
I3231
sS'pont'
p5391
I4955
sS'arise'
p5392
I5565
sS'influenced'
p5393
I5879
sS'court'
p5394
I1998
sS'advantage'
p5395
I4746
sS'rather'
p5396
I509
sS'breaking'
p5397
I3381
sS'occasionally'
p5398
I4172
sS'stemming'
p5399
I5752
sS'explains'
p5400
I2917
sS'prepayment'
p5401
I4987
sS'reflect'
p5402
I1739
sS'lighting'
p5403
I2407
sS'capitalize'
p5404
I1288
sS'short'
p5405
I1154
sS'susan'
p5406
I2874
sS'departure'
p5407
I3384
sS'supervision'
p5408
I3416
sS'arizona'
p5409
I5872
sS'began'
p5410
I291
sS'turnover'
p5411
I4546
sS'september'
p5412
I858
sS'developed'
p5413
I1760
sS'mission'
p5414
I2896
sS'thomson'
p5415
I3854
sS'avenue'
p5416
I2531
sS'airing'
p5417
I3352
sS'developer'
p5418
I641
sS'style'
p5419
I5005
sS'susceptible'
p5420
I2290
sS'border'
p5421
I5573
sS'resort'
p5422
I68
sS'stephen'
p5423
I1005
sS'argentina'
p5424
I1682
sS'might'
p5425
I1098
sS'alter'
p5426
I5297
sS'return'
p5427
I1349
sS'communities'
p5428
I3064
sS'bancorp'
p5429
I3223
sS'bigger'
p5430
I1670
sS'instructions'
p5431
I2884
sS'woolworth'
p5432
I889
sS'year-to-year'
p5433
I4945
sS'debacle'
p5434
I505
sS'telegraph'
p5435
I4844
sS'friendship'
p5436
I5896
sS'roebuck'
p5437
I5379
sS'weight'
p5438
I3746
sS'generation'
p5439
I1251
sS'used'
p5440
I593
sS'expect'
p5441
I957
sS'mainframes'
p5442
I3953
sS'wages'
p5443
I5449
sS'alcohol'
p5444
I4048
sS'health'
p5445
I3233
sS'hill'
p5446
I2417
sS'benjamin'
p5447
I4927
sS'wisconsin'
p5448
I3974
sS'friday'
p5449
I17
sS'differ'
p5450
I3093
sS'teach'
p5451
I5168
sS'generate'
p5452
I2774
sS'leverage'
p5453
I1727
sS'thrown'
p5454
I4379
sS'circuit'
p5455
I39
sS'consequence'
p5456
I3280
sS'fallen'
p5457
I2334
sS'bushel'
p5458
I2287
sS'feed'
p5459
I2094
sS'feel'
p5460
I1080
sS'radical'
p5461
I5149
sS'fancy'
p5462
I4119
sS'traveled'
p5463
I3533
sS'feet'
p5464
I1327
sS'defects'
p5465
I5480
sS'fees'
p5466
I4286
sS'slower'
p5467
I2066
sS'story'
p5468
I540
sS'script'
p5469
I5032
sS'automobile'
p5470
I4968
sS'financed'
p5471
I5389
sS'storm'
p5472
I3581
sS'store'
p5473
I1753
sS'mainstay'
p5474
I3856
sS'option'
p5475
I1359
sS'pump'
p5476
I4925
sS'relieved'
p5477
I1964
sS'hotel'
p5478
I1768
sS'convinced'
p5479
I2687
sS'king'
p5480
I3167
sS'kind'
p5481
I913
sS'double'
p5482
I1504
sS'mich.'
p5483
I2657
sS'aims'
p5484
I4127
sS'risks'
p5485
I4926
sS'cleaner'
p5486
I5651
sS'liabilities'
p5487
I622
sS'outstanding'
p5488
I2730
sS'strengthen'
p5489
I1578
sS'imports'
p5490
I3719
sS'wilson'
p5491
I2811
sS'nights'
p5492
I4097
sS'port'
p5493
I5924
sS'chairman'
p5494
I134
sS'finding'
p5495
I863
sS'added'
p5496
I861
sS'electric'
p5497
I1233
sS'intervened'
p5498
I5991
sS'goldman'
p5499
I3236
sS'measures'
p5500
I2580
sS'reach'
p5501
I2341
sS'react'
p5502
I4613
sS'shareholder'
p5503
I2371
sS'nothing'
p5504
I1388
sS'measured'
p5505
I4615
sS'soared'
p5506
I2451
sS'stands'
p5507
I4033
sS'polyethylene'
p5508
I1433
sS'dealers'
p5509
I3644
sS'windows'
p5510
I5362
sS'traditional'
p5511
I1978
sS'institutions'
p5512
I999
sS'painewebber'
p5513
I2087
sS'rtc'
p5514
I3191
sS'focusing'
p5515
I5928
sS'large'
p5516
I228
sS'havoc'
p5517
I2293
sS'costing'
p5518
I5866
sS'penalty'
p5519
I3744
sS'his'
p5520
I141
sS'publicity'
p5521
I2797
sS'gains'
p5522
I179
sS'compiled'
p5523
I4869
sS'arts'
p5524
I4079
sS'mortgage-backed'
p5525
I5640
sS'him'
p5526
I2408
sS'investigate'
p5527
I5870
sS'activity'
p5528
I3869
sS'vincent'
p5529
I885
sS'wrote'
p5530
I3450
sS'cranston'
p5531
I5878
sS'bars'
p5532
I5793
sS'dump'
p5533
I269
sS'achieved'
p5534
I4231
sS'declines'
p5535
I841
sS'defense'
p5536
I803
sS'are'
p5537
I151
sS'arm'
p5538
I1230
sS'declined'
p5539
I1343
sS'recording'
p5540
I955
sS'threats'
p5541
I6037
sS'distinctive'
p5542
I4019
sS'various'
p5543
I763
sS'downturn'
p5544
I4355
sS'numerous'
p5545
I2780
sS'corruption'
p5546
I5679
sS'korea'
p5547
I1669
sS'recently'
p5548
I1481
sS'creating'
p5549
I5193
sS'initially'
p5550
I5088
sS'sold'
p5551
I587
sS'sole'
p5552
I4161
sS'succeed'
p5553
I232
sS'opposition'
p5554
I3505
sS'c'
p5555
I4729
sS'prescription'
p5556
I2477
sS'license'
p5557
I2016
sS'oversee'
p5558
I5428
sS'became'
p5559
I2613
sS'redemptions'
p5560
I815
sS'context'
p5561
I5310
sS'finds'
p5562
I3095
sS'flies'
p5563
I5670
sS'reasons'
p5564
I1226
sS'sweet'
p5565
I4264
sS'sweep'
p5566
I3136
sS'improper'
p5567
I5909
sS'regulated'
p5568
I5420
sS'village'
p5569
I4105
sS'bolster'
p5570
I4967
sS'decline'
p5571
I192
sS'dun'
p5572
I890
sS'incomes'
p5573
I4021
sS'political'
p5574
I3473
sS'due'
p5575
I1952
sS'strategy'
p5576
I1296
sS'pc'
p5577
I4813
sS'reduction'
p5578
I3535
sS'flight'
p5579
I3525
sS'precision'
p5580
I3079
sS'schwab'
p5581
I4769
sS'brokers'
p5582
I439
sS'demand'
p5583
I1560
sS'developments'
p5584
I1193
sS'plants'
p5585
I1235
sS'georgia'
p5586
I2021
sS'frozen'
p5587
I5408
sS'behavior'
p5588
I4060
sS'p.'
p5589
I2638
sS'disappointing'
p5590
I3910
sS'obstacle'
p5591
I2684
sS'rid'
p5592
I271
sS'computer-driven'
p5593
I2136
sS'widely'
p5594
I3492
sS'peoples'
p5595
I3341
sS'advise'
p5596
I463
sS'higher'
p5597
I869
sS'restraint'
p5598
I1687
sS'negotiate'
p5599
I1573
sS'cement'
p5600
I2246
sS'moving'
p5601
I1613
sS'contractors'
p5602
I3811
sS'robust'
p5603
I2038
sS'lower'
p5604
I302
sS'anybody'
p5605
I1396
sS'analysis'
p5606
I971
sS'magnified'
p5607
I1421
sS'machinery'
p5608
I5114
sS'know'
p5609
I573
sS'competitive'
p5610
I3350
sS'questions'
p5611
I1521
sS'lexus'
p5612
I5098
sS'prince'
p5613
I555
sS'profitable'
p5614
I765
sS'tables'
p5615
I3130
sS'advisers'
p5616
I5326
sS'workers'
p5617
I1175
sS'exclusively'
p5618
I3097
sS'contractor'
p5619
I3824
sS'violations'
p5620
I2231
sS'profitably'
p5621
I2201
sS'associations'
p5622
I3419
sS'customers'
p5623
I493
sS'amended'
p5624
I5059
sS'moody'
p5625
I4318
sS'skeptical'
p5626
I3375
sS'breeden'
p5627
I5322
sS'marlin'
p5628
I4694
sS'separately'
p5629
I1989
sS'collect'
p5630
I1752
sS'arthur'
p5631
I2816
sS'understood'
p5632
I5256
sS'newsletter'
p5633
I4338
sS'gradually'
p5634
I5349
sS'pros'
p5635
I5340
sS'seller'
p5636
I1980
sS'bankruptcy-law'
p5637
I2471
sS'tends'
p5638
I4491
sS'anne'
p5639
I4159
sS'beleaguered'
p5640
I84
sS'martin'
p5641
I3166
sS'withdrawals'
p5642
I806
sS'500-stock'
p5643
I93
sS'weil'
p5644
I2736
sS'intense'
p5645
I1520
sS'vaccine'
p5646
I2692
sS'vivid'
p5647
I2831
sS'pipeline'
p5648
I1299
sS'cautious'
p5649
I2182
sS'completing'
p5650
I1541
sS'range'
p5651
I1219
sS'fleets'
p5652
I1097
sS'inventories'
p5653
I1471
sS'question'
p5654
I2162
sS'fast'
p5655
I1458
sS'rowe'
p5656
I934
sS'analyze'
p5657
I549
sS'plunge'
p5658
I173
sS'repeatedly'
p5659
I1837
sS'filed'
p5660
I1997
sS'encourages'
p5661
I5266
sS'junior'
p5662
I5015
sS'deployed'
p5663
I4657
sS'capitalized'
p5664
I5660
sS'barring'
p5665
I2337
sS'fluctuations'
p5666
I3647
sS'z'
p5667
I5336
sS'etc.'
p5668
I4445
sS'called'
p5669
I1183
sS'associated'
p5670
I3893
sS'warning'
p5671
I5374
sS'rally'
p5672
I2347
sS'tentative'
p5673
I5108
sS'overseeing'
p5674
I5996
sS'barred'
p5675
I4040
sS'club'
p5676
I4740
sS'income'
p5677
I1008
sS'nice'
p5678
I4418
sS'users'
p5679
I3935
sS'problems'
p5680
I713
sS'meaning'
p5681
I5247
sS'allowing'
p5682
I4478
sS'vice'
p5683
I128
sS'departments'
p5684
I5174
sS'microsoft'
p5685
I3897
sS'nasa'
p5686
I3521
sS'remic'
p5687
I4978
sS'once'
p5688
I72
sS'issued'
p5689
I2194
sS'resistance'
p5690
I5158
sS'steve'
p5691
I2670
sS'angeles-based'
p5692
I5065
sS'edt'
p5693
I235
sS'adjustment'
p5694
I3651
sS'contributions'
p5695
I5191
sS'issues'
p5696
I2980
sS'issuer'
p5697
I5590
sS'simon'
p5698
I5465
sS'special-interest'
p5699
I4202
sS'shanghai'
p5700
I2192
sS'stable'
p5701
I2348
sS'include'
p5702
I2469
sS'dramatically'
p5703
I2832
sS'seized'
p5704
I5887
sS'engineered'
p5705
I4547
sS'wishes'
p5706
I4152
sS'notes'
p5707
I2409
sS'leader'
p5708
I2158
sS'deals'
p5709
I3192
sS'noted'
p5710
I939
sS'concluded'
p5711
I3164
sS'smaller'
p5712
I1087
sS'concludes'
p5713
I4362
sS'acid'
p5714
I2494
sS'makers'
p5715
I2742
sS'hk$'
p5716
I2193
sS'compaq'
p5717
I3933
sS'concessions'
p5718
I5206
sS'bearish'
p5719
I2358
sS'find'
p5720
I2300
sS'waiting'
p5721
I5604
sS'capital'
p5722
I105
sS'chose'
p5723
I4266
sS'degree'
p5724
I154
sS'pushing'
p5725
I3021
sS'slated'
p5726
I3378
sS'n.v'
p5727
I4189
sS'larger'
p5728
I1655
sS'leaving'
p5729
I3061
sS'suggests'
p5730
I3636
sS'u.k.'
p5731
I1300
sS'stockholders'
p5732
I4652
sS'apple'
p5733
I3911
sS'deputy'
p5734
I5120
sS'scaled'
p5735
I875
sS'aboard'
p5736
I5890
sS'motor'
p5737
I3639
sS'duck'
p5738
I4102
sS'use'
p5739
I1689
sS'fee'
p5740
I5665
sS'from'
p5741
I312
sS'usa'
p5742
I2544
sS'&'
p5743
I90
sS'few'
p5744
I557
sS'examination'
p5745
I3655
sS'december'
p5746
I1114
sS'timetable'
p5747
I1117
sS'chip'
p5748
I5802
sS'usx'
p5749
I5840
sS'sort'
p5750
I4354
sS'parliament'
p5751
I5455
sS'journalists'
p5752
I5441
sS'factor'
p5753
I4856
sS'cooperate'
p5754
I5905
sS'women'
p5755
I2898
sS'1980s'
p5756
I1831
sS'stabilized'
p5757
I4751
sS'column'
p5758
I5849
sS'anywhere'
p5759
I2098
sS'proof'
p5760
I5688
sS'arafat'
p5761
I3559
sS'tax'
p5762
I4196
sS'tag'
p5763
I4812
sS'hilton'
p5764
I5844
sS'something'
p5765
I459
sS'rape'
p5766
I3503
sS'sir'
p5767
I5061
sS'united'
p5768
I208
sS'usair'
p5769
I280
sS'sit'
p5770
I3024
sS'six'
p5771
I1544
sS'struggles'
p5772
I2603
sS'traders'
p5773
I49
sS'brian'
p5774
I2653
sS'instead'
p5775
I932
sS'goldsmith'
p5776
I5062
sS'panic'
p5777
I54
sS'tension'
p5778
I1868
sS'attend'
p5779
I4025
sS'abuse'
p5780
I4444
sS'ethnic'
p5781
I4092
sS'status'
p5782
I5680
sS'light'
p5783
I2507
sS'tenure'
p5784
I3094
sS'preparing'
p5785
I1113
sS'interpreted'
p5786
I1973
sS'looks'
p5787
I1414
sS'ships'
p5788
I4285
sS'permanent'
p5789
I4258
sS'orange'
p5790
I2321
sS'holiday'
p5791
I2075
sS'pending'
p5792
I237
sS'violating'
p5793
I5968
sS'crash'
p5794
I44
sS'orthodox'
p5795
I2887
sS'practice'
p5796
I4434
sS'flew'
p5797
I5330
sS'republican'
p5798
I4232
sS'investor'
p5799
I873
sS'fled'
p5800
I5635
sS'successor'
p5801
I2234
sS'articles'
p5802
I4450
sS'nfl'
p5803
I5751
sS'bills'
p5804
I787
sS'studios'
p5805
I5959
sS'related'
p5806
I539
sS'remove'
p5807
I3600
sS'our'
p5808
I529
sS'out'
p5809
I420
sS'category'
p5810
I1607
sS'dassault'
p5811
I3840
sS'disarray'
p5812
I2542
sS'chaos'
p5813
I37
sS'integrated'
p5814
I4826
sS'thrifts'
p5815
I3180
sS'disclose'
p5816
I2713
sS'promptly'
p5817
I4392
sS'york'
p5818
I11
sS'conflicts'
p5819
I4141
sS'philip'
p5820
I107
sS'washington-based'
p5821
I5299
sS'ltd'
p5822
I2190
sS'hence'
p5823
I4924
sS'lagged'
p5824
I5368
sS'proposing'
p5825
I5226
sS'noticed'
p5826
I5528
sS'publication'
p5827
I5800
sS'overtime'
p5828
I1191
sS'their'
p5829
I46
sS'shelf'
p5830
I1845
sS'reversed'
p5831
I1319
sS'reflecting'
p5832
I1512
sS'july'
p5833
I2061
sS'institution'
p5834
I3214
sS'picked'
p5835
I2080
sS'hearings'
p5836
I4417
sS'liquid'
p5837
I4716
sS'boring'
p5838
I3752
sS'limiting'
p5839
I3044
sS'creditors'
p5840
I654
sS'linked'
p5841
I5473
sS'catholic'
p5842
I2826
sS'afraid'
p5843
I353
sS'rout'
p5844
I1464
sS'agency'
p5845
I781
sS'which'
p5846
I281
sS'first-quarter'
p5847
I5221
sS'combat'
p5848
I2138
sS'collaboration'
p5849
I3810
sS'who'
p5850
I69
sS'why'
p5851
I2853
sS'discourage'
p5852
I3391
sS'ramirez'
p5853
I5610
sS'pipe'
p5854
I3862
sS'mid-1980s'
p5855
I5858
sS'n.c.'
p5856
I3188
sS'chances'
p5857
I923
sS'agreed'
p5858
I1210
sS'planning'
p5859
I1042
sS'democrats'
p5860
I4208
sS'fear'
p5861
I821
sS'debate'
p5862
I402
sS'litigation'
p5863
I3404
sS'kravis'
p5864
I1618
sS'candidates'
p5865
I4112
sS'thousands'
p5866
I3474
sS'spun'
p5867
I5987
sS'dinkins'
p5868
I4117
sS'watching'
p5869
I1815
sS'plaintiff'
p5870
I5774
sS'midnight'
p5871
I4222
sS'massacre'
p5872
I4335
sS'ones'
p5873
I2923
sS'words'
p5874
I4415
sS'tactics'
p5875
I5535
sS'spur'
p5876
I4701
sS'mulford'
p5877
I5327
sS'brain'
p5878
I3459
sS'married'
p5879
I5785
sS'affluent'
p5880
I4005
sS'view'
p5881
I952
sS'europe'
p5882
I1835
sS'shedding'
p5883
I2779
sS'acquired'
p5884
I739
sS'merits'
p5885
I5538
sS'acquires'
p5886
I1781
sS'closer'
p5887
I3832
sS'favor'
p5888
I5241
sS'projecting'
p5889
I5868
sS'closed'
p5890
I191
sS'crude'
p5891
I2078
sS'chairmen'
p5892
I5321
sS'bought'
p5893
I3190
sS'publishers'
p5894
I2513
sS'ability'
p5895
I1263
sS'opening'
p5896
I1328
sS'a.m'
p5897
I4868
sS'agencies'
p5898
I1647
sS'job'
p5899
I142
sS'takeover'
p5900
I230
sS'joe'
p5901
I4460
sS'jon'
p5902
I3335
sS'barrett'
p5903
I5777
sS'wilbur'
p5904
I4954
sS'april'
p5905
I3683
sS'bronx'
p5906
I2814
sS'grounds'
p5907
I3453
sS'wall'
p5908
I221
sS'walk'
p5909
I5337
sS'packaging'
p5910
I1439
sS'respect'
p5911
I2947
sS'narrowed'
p5912
I4199
sS'decent'
p5913
I5499
sS'trademark'
p5914
I5496
sS'agreements'
p5915
I577
sS'mike'
p5916
I4802
sS'painted'
p5917
I1932
sS'sufficient'
p5918
I2204
sS'ensuring'
p5919
I3722
sS'tangible'
p5920
I3699
sS'present'
p5921
I2907
sS'abandoned'
p5922
I4619
sS'unlike'
p5923
I807
sS'management-led'
p5924
I5380
sS'choices'
p5925
I4670
sS'will'
p5926
I497
sS'stunning'
p5927
I5395
sS'wild'
p5928
I4890
sS'supply'
p5929
I2077
sS'ringing'
p5930
I438
sS'thus'
p5931
I1561
sS'encouragement'
p5932
I5261
sS'audiences'
p5933
I3300
sS'perhaps'
p5934
I1903
sS'cross'
p5935
I6024
sS'member'
p5936
I2395
sS'adverse'
p5937
I2696
sS'retailing'
p5938
I2029
sS'largest'
p5939
I377
sS'units'
p5940
I2011
sS'gets'
p5941
I4766
sS'difficult'
p5942
I2033
sS'premiere'
p5943
I3311
sS'disagree'
p5944
I4462
sS'refineries'
p5945
I2072
sS'student'
p5946
I4754
sS'lobby'
p5947
I5876
sS'approve'
p5948
I4193
sS'fighting'
p5949
I3107
sS'breaker'
p5950
I396
sS'inc.'
p5951
I137
sS'excessive'
p5952
I2798
sS'high-risk'
p5953
I2223
sS'heavily'
p5954
I3697
sS'half'
p5955
I814
sS'obtain'
p5956
I1348
sS'fishing'
p5957
I3802
sS'rocked'
p5958
I3825
sS'rapid'
p5959
I4732
sS'drunk'
p5960
I4058
sS'smith'
p5961
I4711
sS'discuss'
p5962
I2979
sS'other'
p5963
I320
sS'attractive'
p5964
I482
sS'unprecedented'
p5965
I5003
sS'enact'
p5966
I4223
sS'identical'
p5967
I5486
sS'sick'
p5968
I3179
sS'provisions'
p5969
I2632
sS'execute'
p5970
I5587
sS'siemens'
p5971
I3858
sS'kellogg'
p5972
I911
sS'community'
p5973
I1143
sS'press'
p5974
I1940
sS'miami'
p5975
I2587
sS'loses'
p5976
I2899
sS'taxpayers'
p5977
I5184
sS'lawson'
p5978
I4191
sS'january'
p5979
I2340
sS'exceed'
p5980
I3078
sS'because'
p5981
I169
sS'tumble'
p5982
I4683
sS'scared'
p5983
I986
sS'searching'
p5984
I5050
sS'growth'
p5985
I1007
sS'export'
p5986
I2114
sS'empire'
p5987
I5594
sS'employment'
p5988
I4404
sS'lead'
p5989
I1735
sS'lean'
p5990
I2781
sS'mines'
p5991
I5451
sS'detergent'
p5992
I1789
sS'leap'
p5993
I2346
sS'york-based'
p5994
I1614
sS'murdoch'
p5995
I3794
sS'across-the-board'
p5996
I4224
sS'rare'
p5997
I3116
sS'carried'
p5998
I2276
sS'extension'
p5999
I1699
sS'getting'
p6000
I1914
sS'high-end'
p6001
I2459
sS'urged'
p6002
I3805
sS'surge'
p6003
I3902
sS'carries'
p6004
I5477
sS'carrier'
p6005
I1045
sS'outset'
p6006
I5421
sS'own'
p6007
I1370
sS'owe'
p6008
I5139
sS'warrants'
p6009
I2187
sS'weather'
p6010
I2091
sS'promise'
p6011
I1975
sS'registration'
p6012
I5900
sS'prompted'
p6013
I3545
sS'hitting'
p6014
I4518
sS'van'
p6015
I2607
sS'texaco'
p6016
I3396
sS'transfer'
p6017
I5436
sS'continental'
p6018
I3393
sS'intention'
p6019
I3406
sS'cairo'
p6020
I3569
sS'redmond'
p6021
I2702
sS'triggered'
p6022
I307
sS'funds'
p6023
I543
sS'volume'
p6024
I184
sS'automated'
p6025
I4525
sS'squeeze'
p6026
I2291
sS'made'
p6027
I613
sS'va.'
p6028
I4935
sS'whether'
p6029
I441
sS'record'
p6030
I188
sS'below'
p6031
I1015
sS'ruling'
p6032
I2504
sS'mutual'
p6033
I797
sS"'ll"
p6034
I533
sS'percent'
p6035
I1568
sS'illinois'
p6036
I3971
sS'book'
p6037
I2850
sS'boom'
p6038
I1394
sS'branch'
p6039
I3198
sS'junk'
p6040
I2224
sS'kinds'
p6041
I3392
sS'june'
p6042
I1539
sS'contends'
p6043
I1840
sS'priced'
p6044
I2197
sS'incurred'
p6045
I4519
sS'ranks'
p6046
I3884
sS'volumes'
p6047
I4942
sS'ideological'
p6048
I5675
sS'irony'
p6049
I5504
s.